(lp1
(lp2
I0
aI1
aI2
aI3
aI4
aI5
aI6
aI0
aI7
aI8
aI9
aI10
aI11
aI12
aI13
aI14
aI15
aI16
aI17
aI18
aI19
aI20
aI21
aI22
aI23
aI24
aI25
aI26
aI27
aI28
aI29
aI30
aI31
aI32
aI33
aI34
aI35
aI6
aa(lp3
I36
aI37
aI38
aI39
aI38
aI40
aI38
aI41
aI38
aI42
aI38
aI43
aI44
aI45
aI46
aI47
aI48
aI49
aI50
aI51
aI52
aI53
aI54
aI55
aI56
aI57
aI58
aI41
aI59
aI60
aI61
aI62
aI63
aI64
aI65
aI66
aI67
aI58
aI68
aI69
aI70
aI71
aa(lp4
I36
aI72
aI38
aI73
aI38
aI3
aI38
aI74
aI38
aI75
aI38
aI76
aI38
aI77
aI38
aI78
aI38
aI79
aI44
aI80
aI81
aI82
aI83
aI84
aI85
aI86
aI87
aI88
aI89
aI90
aI91
aI92
aI93
aI94
aI95
aI96
aI97
aI98
aI99
aI100
aI101
aI102
aI103
aI104
aI96
aI105
aI106
aI107
aI108
aI109
aI110
aI111
aI112
aI113
aI97
aI114
aI115
aI116
aI117
aI118
aI119
aI120
aI121
aa(lp5
I36
aI37
aI38
aI122
aI38
aI123
aI38
aI124
aI38
aI125
aI38
aI126
aI38
aI127
aI44
aI45
aI128
aI129
aI130
aI131
aI132
aI133
aI134
aI135
aI136
aI137
aI138
aI139
aI140
aI141
aI142
aI143
aI144
aI145
aI146
aI147
aI148
aI149
aI150
aI127
aI151
aI152
aa(lp6
I36
aI153
aI38
aI154
aI38
aI155
aI38
aI156
aI38
aI157
aI44
aI158
aI153
aI159
aI160
aI161
aI154
aI162
aI163
aI164
aI165
aI166
aI167
aI168
aI161
aI169
aI170
aI171
aI172
aI173
aI174
aI175
aI176
aI177
aI178
aI179
aI71
aa(lp7
I36
aI180
aI38
aI73
aI38
aI181
aI38
aI182
aI44
aI183
aI93
aI184
aI167
aI185
aI85
aI86
aI147
aI186
aI107
aI187
aI188
aI189
aI190
aI191
aI127
aI192
aI107
aI144
aI120
aI121
aa(lp8
I36
aI37
aI38
aI39
aI38
aI193
aI38
aI41
aI38
aI107
aI38
aI194
aI38
aI195
aI44
aI45
aI46
aI47
aI48
aI49
aI50
aI51
aI196
aI197
aI198
aI199
aI56
aI57
aI58
aI41
aI59
aI200
aI186
aI107
aI108
aI147
aI201
aI202
aI203
aI204
aI97
aI205
aI206
aI207
aI208
aI112
aI209
aI210
aI211
aI212
aa(lp9
I36
aI107
aI38
aI182
aI38
aI213
aI38
aI214
aI38
aI215
aI38
aI216
aI44
aI217
aI107
aI108
aI218
aI190
aI191
aI127
aI192
aI107
aI144
aI219
aI220
aI221
aI213
aI222
aI223
aI224
aI214
aI225
aI226
aI227
aI228
aI229
aI230
aI231
aI232
aI233
aI234
aa(lp10
I36
aI180
aI38
aI73
aI38
aI182
aI38
aI235
aI44
aI183
aI93
aI184
aI167
aI185
aI85
aI86
aI218
aI190
aI191
aI127
aI192
aI107
aI144
aI219
aI236
aI173
aI174
aI102
aI237
aI238
aI152
aa(lp11
I239
aI240
aI107
aI241
aI242
aI107
aI243
aI244
aI245
aI246
aI247
aI248
aI249
aI250
aI123
aI251
aI75
aI252
aI123
aI107
aI247
aI253
aI254
aI255
aI256
aI257
aI258
aI246
aI259
aI260
aI244
aI261
aI262
aI263
aI264
aI265
aI266
aI267
aI268
aI269
aI270
aI271
aI272
aI273
aI274
aI275
aI107
aI276
aI277
aI278
aI279
aI280
aI127
aI281
aI282
aI283
aI284
aI285
aI286
aI287
aI288
aI145
aI289
aI290
aI291
aI275
aI107
aI276
aI292
aI293
aI294
aI295
aI296
aI297
aI298
aI299
aI300
aI301
aI302
aI303
aI304
aI305
aI306
aI307
aI308
aI276
aI309
aI310
aI311
aI312
aI280
aI313
aI314
aI315
aI278
aI279
aI316
aI317
aI318
aI319
aI320
aI321
aI322
aI323
aI324
aI325
aI306
aI326
aI327
aI328
aI329
aI330
aI331
aI332
aI333
aI334
aI335
aI336
aI337
aI338
aI339
aI340
aI341
aI342
aI343
aI344
aI345
aI346
aI347
aI348
aI349
aI350
aI351
aI352
aI353
aI354
aI209
aI210
aI355
aI356
aI338
aI339
aI357
aI275
aI107
aI276
aI277
aI278
aI279
aI316
aI317
aI318
aI358
aI359
aI360
aI361
aI362
aI363
aI364
aI365
aI366
aI367
aI368
aI369
aI370
aI281
aI371
aI372
aI373
aI107
aI144
aI273
aI374
aI375
aI376
aI377
aI378
aI379
aI380
aI381
aI382
aI383
aI384
aI257
aI385
aI386
aI265
aI266
aI387
aI388
aI389
aI270
aI271
aI272
aI273
aI390
aI310
aI311
aI312
aI280
aI313
aI314
aI291
aI275
aI391
aI392
aI393
aI394
aI395
aI396
aI397
aI398
aI399
aI400
aI401
aI260
aI15
aI402
aI301
aI302
aI303
aI304
aI305
aI403
aa(lp12
I36
aI125
aI38
aI2
aI38
aI404
aI38
aI405
aI44
aI406
aI143
aI144
aI145
aI146
aI407
aI408
aI103
aI409
aI410
aI411
aI412
aI413
aI414
aI415
aI416
aI417
aI418
aI419
aI420
aI421
aI422
aI423
aI166
aI424
aI425
aa(lp13
I36
aI37
aI38
aI426
aI38
aI123
aI38
aI124
aI38
aI125
aI38
aI123
aI38
aI427
aI44
aI45
aI428
aI429
aI430
aI431
aI432
aI433
aI134
aI135
aI136
aI137
aI138
aI139
aI140
aI141
aI142
aI143
aI144
aI145
aI146
aI147
aI134
aI135
aI434
aI435
aI436
aI152
aa(lp14
I36
aI93
aI38
aI73
aI38
aI437
aI38
aI438
aI38
aI439
aI44
aI183
aI93
aI94
aI185
aI85
aI86
aI87
aI440
aI441
aI442
aI398
aI443
aI444
aI161
aI154
aI445
aI446
aI236
aI173
aI174
aI175
aI176
aI447
aI448
aI449
aI450
aa(lp15
I36
aI180
aI38
aI73
aI38
aI451
aI38
aI3
aI38
aI74
aI44
aI183
aI93
aI184
aI167
aI185
aI85
aI86
aI87
aI440
aI452
aI453
aI454
aI455
aI456
aI88
aI89
aI90
aI91
aI92
aI93
aI457
aI425
aa(lp16
I36
aI254
aI38
aI2
aI38
aI107
aI38
aI458
aI44
aI406
aI369
aI370
aI459
aI460
aI408
aI103
aI461
aI186
aI107
aI108
aI147
aI462
aI119
aI463
aI464
aI465
aI466
aI467
aI468
aI469
aI324
aI325
aI470
aI471
aa(lp17
I36
aI180
aI38
aI73
aI38
aI107
aI38
aI472
aI44
aI183
aI93
aI184
aI167
aI185
aI85
aI86
aI147
aI186
aI107
aI108
aI147
aI462
aI473
aI302
aI465
aI474
aI127
aI469
aI324
aI325
aI470
aI471
aa(lp18
I36
aI254
aI475
aI38
aI107
aI38
aI182
aI38
aI476
aI44
aI406
aI369
aI370
aI477
aI478
aI479
aI461
aI186
aI107
aI108
aI218
aI190
aI191
aI127
aI192
aI107
aI144
aI219
aI200
aI134
aI480
aI481
aI482
aI483
aI484
aI485
aa(lp19
I36
aI486
aI38
aI73
aI38
aI123
aI38
aI154
aI38
aI487
aI38
aI488
aI38
aI489
aI44
aI490
aI105
aI491
aI492
aI493
aI494
aI495
aI496
aI497
aI421
aI85
aI86
aI147
aI134
aI135
aI498
aI161
aI154
aI162
aI163
aI499
aI500
aI501
aI502
aI503
aI504
aI505
aI506
aI507
aI455
aI508
aI173
aI174
aI175
aI176
aI447
aI509
aI71
aa(lp20
I36
aI37
aI38
aI122
aI38
aI3
aI38
aI510
aI38
aI511
aI44
aI45
aI128
aI129
aI130
aI131
aI132
aI456
aI88
aI512
aI513
aI514
aI515
aI516
aI430
aI517
aI518
aI519
aI520
aI521
aI522
aI523
aI324
aI524
aI525
aI131
aI526
aI152
aa(lp21
I36
aI254
aI38
aI527
aI38
aI107
aI38
aI182
aI38
aI139
aI44
aI406
aI369
aI370
aI459
aI460
aI528
aI529
aI133
aI186
aI107
aI108
aI218
aI190
aI191
aI127
aI192
aI107
aI144
aI219
aI530
aI531
aI139
aI532
aI533
aa(lp22
I36
aI37
aI534
aI38
aI535
aI38
aI536
aI44
aI537
aI538
aI539
aI540
aI541
aI542
aI543
aI544
aI545
aI546
aI515
aI55
aI547
aI548
aI549
aI485
aa(lp23
I36
aI550
aI38
aI73
aI38
aI123
aI38
aI438
aI38
aI551
aI44
aI490
aI105
aI491
aI552
aI553
aI554
aI555
aI556
aI497
aI421
aI85
aI86
aI147
aI134
aI135
aI498
aI161
aI154
aI445
aI446
aI236
aI173
aI557
aI558
aI559
aI82
aI448
aI449
aI450
aa(lp24
I36
aI37
aI38
aI122
aI38
aI123
aI38
aI560
aI38
aI107
aI38
aI182
aI38
aI561
aI38
aI214
aI38
aI562
aI38
aI563
aI44
aI45
aI128
aI129
aI130
aI131
aI132
aI133
aI134
aI135
aI136
aI137
aI564
aI565
aI566
aI567
aI186
aI107
aI108
aI218
aI190
aI191
aI127
aI192
aI107
aI144
aI219
aI220
aI221
aI568
aI569
aI224
aI214
aI225
aI226
aI570
aI229
aI230
aI571
aI572
aI573
aI574
aa(lp25
I36
aI37
aI38
aI122
aI38
aI123
aI38
aI124
aI38
aI437
aI38
aI125
aI38
aI575
aI44
aI45
aI128
aI129
aI130
aI131
aI132
aI133
aI134
aI135
aI136
aI137
aI138
aI139
aI140
aI576
aI440
aI441
aI442
aI398
aI443
aI189
aI142
aI143
aI144
aI145
aI146
aI147
aI134
aI577
aI578
aI127
aI151
aI152
aa(lp26
I36
aI254
aI38
aI439
aI38
aI579
aI38
aI580
aI38
aI581
aI44
aI406
aI369
aI370
aI459
aI508
aI173
aI174
aI175
aI176
aI447
aI448
aI582
aI583
aI584
aI585
aI498
aI586
aI580
aI587
aI588
aI589
aI590
aI591
aI592
aI471
aa(lp27
I36
aI593
aI534
aI38
aI40
aI38
aI594
aI38
aI3
aI38
aI595
aI38
aI213
aI44
aI596
aI597
aI539
aI49
aI50
aI51
aI52
aI53
aI54
aI55
aI56
aI57
aI58
aI41
aI598
aI599
aI456
aI88
aI512
aI513
aI514
aI515
aI516
aI600
aI601
aI602
aI223
aI221
aI213
aI603
aI471
aa(lp28
I36
aI72
aI38
aI73
aI38
aI604
aI44
aI80
aI81
aI82
aI83
aI84
aI85
aI86
aI605
aI58
aI68
aI606
aI607
aI608
aa(lp29
I36
aI609
aI38
aI43
aI44
aI610
aI611
aI612
aI613
aI614
aI615
aI616
aI617
aI605
aI58
aI68
aI69
aI70
aI71
aa(lp30
I254
aI618
aI2
aI619
aI75
aI620
aI621
aI622
aI369
aI370
aI281
aI337
aI623
aI624
aI625
aI626
aI627
aI14
aI15
aI628
aI623
aI629
aI630
aI347
aI348
aI631
aI632
aI620
aI633
aI634
aI635
aI169
aI636
aI637
aI319
aI638
aI639
aI640
aI641
aa(lp31
I36
aI37
aI38
aI39
aI38
aI40
aI38
aI41
aI38
aI3
aI38
aI642
aI38
aI123
aI38
aI643
aI44
aI45
aI46
aI47
aI48
aI49
aI50
aI51
aI52
aI53
aI54
aI55
aI56
aI57
aI58
aI41
aI59
aI644
aI88
aI645
aI646
aI647
aI648
aI649
aI650
aI147
aI134
aI135
aI651
aI652
aI653
aI654
aI655
aI656
aa(lp32
I36
aI37
aI38
aI122
aI38
aI657
aI38
aI43
aI44
aI45
aI128
aI129
aI130
aI131
aI132
aI658
aI513
aI514
aI515
aI659
aI615
aI616
aI617
aI605
aI58
aI68
aI69
aI70
aI71
aa(lp33
I36
aI37
aI38
aI660
aI38
aI123
aI38
aI124
aI38
aI437
aI38
aI107
aI38
aI182
aI44
aI45
aI128
aI661
aI662
aI663
aI459
aI133
aI134
aI135
aI136
aI137
aI138
aI139
aI140
aI576
aI440
aI441
aI442
aI398
aI443
aI133
aI186
aI107
aI108
aI218
aI190
aI191
aI127
aI192
aI107
aI144
aI120
aI121
aa(lp34
I664
aI2
aI107
aI665
aI666
aI107
aI667
aI664
aI668
aI669
aI14
aI15
aI628
aI275
aI107
aI276
aI670
aI671
aI466
aI295
aI296
aI672
aI673
aI674
aI675
aI676
aI371
aI677
aI678
aI679
aI275
aI107
aI276
aI680
aI681
aI667
aI682
aa(lp35
I36
aI37
aI38
aI39
aI38
aI40
aI38
aI41
aI38
aI3
aI38
aI683
aI38
aI684
aI38
aI126
aI44
aI45
aI46
aI47
aI48
aI49
aI50
aI51
aI52
aI53
aI54
aI55
aI56
aI57
aI58
aI41
aI59
aI644
aI88
aI685
aI686
aI687
aI69
aI688
aI689
aI520
aI521
aI522
aI207
aI690
aI691
aI524
aI525
aI159
aI692
aI693
aI152
aa(lp36
I0
aI1
aI694
aI695
aI75
aI696
aI0
aI7
aI8
aI9
aI10
aI11
aI12
aI697
aI698
aI699
aI700
aI701
aI702
aI703
aI704
aI705
aI346
aI347
aI348
aI706
aI701
aI707
aI708
aI709
aI710
aI711
aI712
aI713
aI714
aI715
aa(lp37
I36
aI37
aI38
aI39
aI38
aI716
aI38
aI123
aI38
aI717
aI38
aI718
aI44
aI45
aI46
aI47
aI48
aI719
aI686
aI720
aI721
aI55
aI56
aI722
aI134
aI135
aI723
aI724
aI717
aI725
aI726
aI727
aI728
aI729
aI92
aI730
aI731
aI450
aa(lp38
I732
aI75
aI733
aI734
aI735
aI736
aI737
aI738
aI112
aI209
aI210
aI739
aI740
aI741
aI742
aI743
aI744
aI347
aI348
aI264
aI745
aI746
aI747
aI748
aI749
aI750
aI751
aI752
aI753
aI754
aI755
aI756
aI55
aI26
aI757
aI758
aI759
aI760
aI761
aI762
aI763
aI764
aI736
aI765
aI766
aI767
aa(lp39
I36
aI768
aI769
aI770
aI44
aI771
aI91
aI92
aI772
aI773
aI774
aI450
aa(lp40
I36
aI37
aI38
aI775
aI38
aI776
aI38
aI777
aI44
aI45
aI128
aI129
aI130
aI131
aI778
aI779
aI780
aI61
aI62
aI781
aI280
aI782
aI159
aI783
aI520
aI521
aI522
aI207
aI690
aI691
aI524
aI525
aI131
aI526
aI152
aa(lp41
I36
aI180
aI38
aI73
aI38
aI451
aI38
aI784
aI38
aI785
aI44
aI183
aI93
aI184
aI167
aI185
aI85
aI86
aI87
aI440
aI452
aI453
aI454
aI455
aI786
aI429
aI787
aI788
aI789
aI790
aI791
aI792
aI520
aI521
aI522
aI523
aI793
aI794
aI795
aI525
aI131
aI796
aI797
aI450
aa(lp42
I0
aI1
aI798
aI799
aI800
aI801
aI802
aI0
aI7
aI8
aI9
aI10
aI11
aI12
aI697
aI803
aI798
aI306
aI804
aI805
aI806
aI177
aI807
aI808
aI809
aI810
aI811
aI812
aI105
aI813
aI119
aI273
aI814
aI283
aI815
aI816
aI817
aI818
aa(lp43
I36
aI180
aI38
aI73
aI38
aI437
aI38
aI819
aI38
aI820
aI44
aI183
aI93
aI184
aI167
aI185
aI85
aI86
aI87
aI440
aI441
aI442
aI398
aI443
aI821
aI822
aI823
aI824
aI119
aI219
aI825
aI504
aI505
aI506
aI507
aI826
aI797
aI450
aa(lp44
I36
aI37
aI38
aI39
aI38
aI827
aI38
aI41
aI38
aI3
aI38
aI777
aI44
aI45
aI46
aI47
aI48
aI49
aI50
aI51
aI52
aI828
aI829
aI830
aI831
aI57
aI58
aI41
aI59
aI644
aI88
aI832
aI520
aI521
aI522
aI207
aI690
aI691
aI524
aI525
aI131
aI526
aI152
aa(lp45
I664
aI833
aI834
aI835
aI664
aI668
aI836
aI837
aI838
aI839
aI840
aI841
aI842
aI843
aI844
aI290
aI845
aI846
aI847
aI848
aI849
aI850
aI851
aI852
aa(lp46
I254
aI2
aI107
aI853
aI666
aI769
aI854
aI369
aI370
aI281
aI855
aI14
aI15
aI628
aI275
aI107
aI276
aI309
aI310
aI856
aI844
aI290
aI857
aI677
aI678
aI858
aI859
aI860
aI861
aI862
aI863
aa(lp47
I36
aI180
aI38
aI73
aI38
aI107
aI38
aI864
aI44
aI183
aI93
aI184
aI167
aI185
aI85
aI86
aI147
aI186
aI107
aI108
aI865
aI150
aI127
aI192
aI107
aI144
aI120
aI121
aa(lp48
I36
aI180
aI38
aI73
aI38
aI437
aI38
aI438
aI38
aI255
aI38
aI866
aI44
aI183
aI93
aI184
aI167
aI185
aI85
aI86
aI87
aI440
aI441
aI442
aI398
aI443
aI444
aI161
aI154
aI445
aI446
aI220
aI867
aI373
aI107
aI144
aI219
aI236
aI173
aI174
aI175
aI176
aI177
aI868
aI450
aa(lp49
I36
aI37
aI38
aI430
aI38
aI123
aI38
aI124
aI38
aI437
aI38
aI107
aI38
aI182
aI44
aI45
aI428
aI429
aI430
aI617
aI147
aI134
aI135
aI136
aI137
aI138
aI139
aI140
aI576
aI440
aI441
aI442
aI398
aI443
aI133
aI186
aI107
aI108
aI218
aI190
aI191
aI127
aI192
aI107
aI144
aI120
aI121
aa(lp50
I36
aI180
aI38
aI73
aI38
aI437
aI38
aI869
aI44
aI183
aI93
aI184
aI167
aI185
aI85
aI86
aI87
aI440
aI441
aI442
aI398
aI443
aI870
aI871
aI824
aI93
aI457
aI425
aa(lp51
I36
aI180
aI38
aI73
aI38
aI125
aI38
aI123
aI38
aI717
aI38
aI872
aI44
aI183
aI93
aI184
aI167
aI185
aI85
aI86
aI218
aI142
aI143
aI144
aI145
aI146
aI147
aI134
aI135
aI723
aI724
aI717
aI725
aI726
aI499
aI873
aI373
aI874
aI515
aI55
aI875
aI876
aa(lp52
I36
aI37
aI38
aI39
aI38
aI716
aI38
aI123
aI38
aI717
aI38
aI877
aI44
aI45
aI46
aI47
aI48
aI719
aI686
aI720
aI721
aI55
aI56
aI722
aI134
aI135
aI723
aI724
aI717
aI725
aI878
aI879
aI880
aI881
aI598
aI882
aI883
aI191
aI788
aI884
aI121
aa(lp53
I664
aI885
aI886
aI664
aI668
aI887
aI888
aI889
aI890
aI891
aI309
aI846
aI847
aI848
aI892
aI893
aa(lp54
I36
aI37
aI38
aI122
aI38
aI123
aI38
aI894
aI38
aI123
aI38
aI895
aI44
aI45
aI128
aI129
aI130
aI131
aI132
aI133
aI134
aI135
aI567
aI896
aI897
aI898
aI899
aI900
aI134
aI135
aI901
aI902
aI903
aI505
aI506
aI507
aI904
aI152
aa(lp55
I36
aI180
aI38
aI73
aI38
aI3
aI38
aI905
aI38
aI906
aI38
aI907
aI38
aI908
aI44
aI183
aI93
aI184
aI167
aI185
aI85
aI86
aI87
aI88
aI909
aI652
aI910
aI911
aI912
aI913
aI914
aI459
aI915
aI50
aI907
aI916
aI917
aI918
aI919
aI920
aI921
aI922
aI923
aI731
aI450
aa(lp56
I36
aI37
aI38
aI39
aI38
aI40
aI38
aI41
aI38
aI3
aI38
aI924
aI38
aI123
aI38
aI127
aI44
aI45
aI46
aI47
aI48
aI49
aI50
aI51
aI52
aI53
aI54
aI55
aI56
aI57
aI58
aI41
aI59
aI644
aI88
aI645
aI99
aI925
aI926
aI927
aI497
aI147
aI134
aI135
aI434
aI150
aI127
aI151
aI152
aa(lp57
I36
aI37
aI38
aI122
aI38
aI928
aI38
aI43
aI44
aI45
aI128
aI129
aI130
aI131
aI132
aI460
aI96
aI82
aI343
aI344
aI929
aI48
aI930
aI58
aI68
aI69
aI70
aI71
aa(lp58
I36
aI107
aI38
aI931
aI38
aI932
aI38
aI514
aI38
aI933
aI38
aI934
aI38
aI75
aI38
aI907
aI38
aI908
aI44
aI217
aI107
aI108
aI147
aI134
aI931
aI935
aI936
aI937
aI938
aI939
aI513
aI514
aI940
aI428
aI429
aI600
aI601
aI602
aI941
aI520
aI521
aI522
aI207
aI690
aI691
aI524
aI525
aI131
aI796
aI942
aI104
aI96
aI97
aI943
aI50
aI907
aI916
aI917
aI918
aI919
aI920
aI921
aI922
aI923
aI731
aI450
aa(lp59
I944
aI945
aI834
aI946
aI835
aI947
aI948
aI949
aI950
aI951
aI945
aI699
aI952
aI846
aI847
aI848
aI849
aI850
aI765
aI953
aI954
aI955
aI956
aI957
aI958
aa(lp60
I36
aI2
aI38
aI527
aI38
aI716
aI38
aI123
aI38
aI203
aI38
aI959
aI44
aI960
aI103
aI104
aI528
aI529
aI961
aI686
aI720
aI721
aI55
aI56
aI722
aI134
aI135
aI962
aI963
aI203
aI964
aI965
aI134
aI966
aI967
aI968
aI969
aI970
aI532
aI533
aa(lp61
I0
aI971
aI2
aI3
aI972
aI973
aI0
aI7
aI8
aI9
aI974
aI975
aI976
aI12
aI13
aI14
aI15
aI16
aI17
aI977
aI888
aI972
aI978
aI979
aI980
aI973
aI981
aa(lp62
I36
aI37
aI38
aI39
aI38
aI40
aI38
aI328
aI38
aI3
aI38
aI982
aI38
aI405
aI44
aI45
aI46
aI47
aI48
aI49
aI50
aI51
aI52
aI53
aI54
aI55
aI56
aI57
aI173
aI328
aI983
aI901
aI88
aI909
aI652
aI653
aI654
aI984
aI985
aI986
aI55
aI56
aI987
aI422
aI423
aI166
aI424
aI425
aa(lp63
I36
aI180
aI38
aI73
aI38
aI125
aI38
aI593
aI38
aI153
aI38
aI72
aI38
aI988
aI38
aI43
aI44
aI183
aI93
aI184
aI167
aI185
aI85
aI86
aI218
aI142
aI143
aI144
aI145
aI146
aI989
aI990
aI991
aI164
aI153
aI159
aI67
aI992
aI81
aI82
aI83
aI993
aI994
aI995
aI213
aI222
aI605
aI58
aI68
aI69
aI70
aI71
aa(lp64
I36
aI996
aI38
aI37
aI38
aI39
aI38
aI535
aI38
aI997
aI44
aI998
aI996
aI518
aI104
aI999
aI46
aI47
aI48
aI540
aI541
aI542
aI543
aI544
aI545
aI546
aI515
aI55
aI547
aI1000
aI1001
aI152
aa(lp65
I36
aI180
aI38
aI1002
aI38
aI3
aI38
aI74
aI38
aI75
aI38
aI76
aI44
aI183
aI93
aI184
aI167
aI185
aI85
aI1003
aI1004
aI441
aI442
aI398
aI443
aI456
aI88
aI89
aI90
aI91
aI92
aI93
aI94
aI95
aI96
aI97
aI98
aI99
aI100
aI101
aI102
aI1005
aI450
aa(lp66
I36
aI37
aI38
aI1006
aI38
aI1007
aI38
aI1008
aI38
aI43
aI44
aI45
aI1009
aI1010
aI1011
aI1012
aI94
aI1013
aI1014
aI1015
aI1016
aI1017
aI1018
aI1019
aI611
aI612
aI1020
aI65
aI177
aI615
aI602
aI605
aI58
aI68
aI69
aI70
aI71
aa(lp67
I36
aI37
aI38
aI660
aI38
aI3
aI38
aI74
aI44
aI45
aI128
aI661
aI662
aI663
aI459
aI456
aI88
aI89
aI90
aI91
aI92
aI93
aI457
aI425
aa(lp68
I36
aI1021
aI38
aI74
aI44
aI406
aI1022
aI1023
aI1024
aI1025
aI1026
aI90
aI91
aI92
aI93
aI457
aI425
aa(lp69
I36
aI1027
aI38
aI154
aI38
aI1028
aI38
aI1029
aI38
aI3
aI38
aI777
aI44
aI1030
aI1031
aI1032
aI1033
aI1034
aI1035
aI161
aI154
aI162
aI1036
aI1037
aI474
aI1038
aI741
aI1039
aI602
aI941
aI520
aI1040
aI1041
aI1042
aI1043
aI1044
aI806
aI447
aI83
aI993
aI88
aI832
aI520
aI521
aI522
aI207
aI690
aI691
aI524
aI525
aI131
aI526
aI152
aa(lp70
I36
aI37
aI38
aI122
aI38
aI1045
aI38
aI124
aI38
aI1046
aI38
aI3
aI38
aI1047
aI38
aI1048
aI44
aI45
aI128
aI129
aI130
aI131
aI132
aI133
aI1049
aI1050
aI1051
aI137
aI138
aI139
aI140
aI576
aI1052
aI1053
aI1054
aI1055
aI529
aI456
aI88
aI832
aI520
aI1056
aI1057
aI1058
aI675
aI132
aI658
aI1059
aI1060
aI1061
aI1062
aI1063
aI1064
aI1001
aI152
aa(lp71
I36
aI37
aI38
aI122
aI38
aI123
aI38
aI1065
aI38
aI437
aI38
aI107
aI38
aI182
aI44
aI45
aI128
aI129
aI130
aI131
aI132
aI133
aI134
aI135
aI901
aI1066
aI1067
aI1068
aI1069
aI456
aI440
aI441
aI442
aI398
aI443
aI133
aI186
aI107
aI108
aI218
aI190
aI191
aI127
aI192
aI107
aI144
aI120
aI121
aa(lp72
I1070
aI1071
aI1072
aI1073
aI1074
aI1070
aI699
aI1075
aI1076
aI1077
aI1078
aI1079
aI15
aI1080
aI1081
aI1082
aI1083
aI1084
aI1085
aI1086
aI1087
aI1088
aI204
aI659
aI1089
aI1090
aI283
aI284
aI1091
aI1092
aI1093
aI1094
aI272
aI467
aI468
aI112
aI209
aI210
aI561
aa(lp73
I36
aI37
aI38
aI122
aI38
aI123
aI38
aI127
aI38
aI1095
aI38
aI43
aI38
aI75
aI38
aI107
aI38
aI1096
aI38
aI1097
aI44
aI45
aI128
aI129
aI130
aI131
aI132
aI133
aI134
aI135
aI434
aI150
aI127
aI459
aI456
aI1066
aI1098
aI297
aI298
aI159
aI67
aI58
aI68
aI69
aI688
aI1099
aI96
aI97
aI692
aI186
aI107
aI108
aI1100
aI1101
aI1096
aI1025
aI1102
aI1103
aI1104
aI1105
aI1033
aI1106
aI1107
aI55
aI875
aI876
aa(lp74
I36
aI180
aI38
aI73
aI38
aI437
aI38
aI3
aI38
aI1108
aI44
aI183
aI93
aI184
aI167
aI185
aI85
aI86
aI87
aI440
aI441
aI442
aI398
aI443
aI456
aI88
aI89
aI90
aI1109
aI1110
aI1111
aI1112
aI425
aa(lp75
I36
aI37
aI38
aI39
aI38
aI40
aI38
aI41
aI38
aI3
aI38
aI194
aI38
aI1113
aI44
aI45
aI46
aI47
aI48
aI49
aI50
aI51
aI52
aI53
aI54
aI55
aI56
aI57
aI58
aI41
aI59
aI644
aI88
aI1114
aI201
aI202
aI203
aI204
aI97
aI205
aI206
aI207
aI1115
aI1116
aI210
aI211
aI212
aa(lp76
I36
aI37
aI38
aI579
aI1117
aI38
aI122
aI38
aI3
aI38
aI1118
aI38
aI37
aI38
aI122
aI38
aI3
aI38
aI1119
aI38
aI75
aI38
aI1120
aI44
aI45
aI1121
aI584
aI1122
aI1123
aI1117
aI1124
aI189
aI129
aI130
aI131
aI132
aI456
aI88
aI832
aI520
aI521
aI522
aI207
aI690
aI691
aI524
aI525
aI131
aI1125
aI1126
aI1127
aI999
aI128
aI129
aI130
aI131
aI132
aI456
aI88
aI89
aI546
aI1128
aI1129
aI1130
aI1131
aI1132
aI521
aI601
aI1133
aI219
aI1134
aI96
aI97
aI205
aI652
aI910
aI1135
aI1136
aI1137
aI1138
aI672
aI673
aI1139
aI471
aa(lp77
I36
aI664
aI38
aI798
aI38
aI438
aI38
aI1140
aI44
aI406
aI664
aI1141
aI901
aI902
aI798
aI146
aI1142
aI161
aI154
aI445
aI446
aI236
aI992
aI1143
aI176
aI447
aI448
aI449
aI450
aa(lp78
I36
aI180
aI38
aI73
aI38
aI1144
aI38
aI123
aI38
aI127
aI44
aI183
aI93
aI184
aI167
aI185
aI85
aI86
aI218
aI142
aI143
aI1145
aI1146
aI219
aI200
aI134
aI135
aI434
aI150
aI127
aI151
aI152
aa(lp79
I36
aI180
aI38
aI73
aI38
aI1147
aI38
aI1148
aI38
aI439
aI44
aI183
aI93
aI184
aI167
aI185
aI85
aI86
aI87
aI440
aI441
aI442
aI162
aI1149
aI1150
aI1151
aI154
aI445
aI446
aI236
aI173
aI174
aI175
aI176
aI447
aI448
aI449
aI450
aa(lp80
I36
aI37
aI38
aI1152
aI38
aI123
aI38
aI127
aI38
aI906
aI38
aI107
aI38
aI1153
aI38
aI1154
aI44
aI45
aI1155
aI1156
aI312
aI1157
aI1158
aI1159
aI219
aI200
aI134
aI135
aI434
aI150
aI127
aI459
aI456
aI914
aI459
aI133
aI186
aI107
aI108
aI1160
aI1161
aI1162
aI1163
aI1164
aI1165
aI1166
aI1167
aI640
aI1168
aI726
aI1169
aI1170
aI675
aI813
aI119
aI120
aI121
aa(lp81
I36
aI593
aI1171
aI38
aI1007
aI38
aI123
aI38
aI717
aI38
aI1172
aI44
aI596
aI1173
aI1174
aI1175
aI1014
aI1015
aI1016
aI1017
aI147
aI134
aI135
aI723
aI724
aI717
aI725
aI726
aI499
aI1042
aI1176
aI1177
aI1178
aI1179
aI1180
aI1181
aI1182
aI450
aa(lp82
I36
aI1183
aI38
aI1184
aI38
aI123
aI38
aI76
aI44
aI1185
aI1183
aI1186
aI200
aI896
aI1187
aI1188
aI1189
aI1190
aI94
aI1191
aI134
aI135
aI1192
aI99
aI100
aI101
aI102
aI1005
aI450
aa(lp83
I36
aI180
aI38
aI73
aI38
aI437
aI38
aI154
aI38
aI439
aI44
aI183
aI93
aI184
aI167
aI185
aI85
aI86
aI87
aI440
aI441
aI442
aI398
aI443
aI444
aI161
aI154
aI162
aI172
aI173
aI174
aI175
aI176
aI447
aI448
aI449
aI450
aa(lp84
I36
aI37
aI38
aI39
aI38
aI40
aI38
aI41
aI38
aI3
aI38
aI653
aI769
aI769
aI55
aI38
aI405
aI38
aI75
aI38
aI907
aI38
aI908
aI44
aI45
aI46
aI47
aI48
aI49
aI50
aI51
aI52
aI53
aI54
aI55
aI56
aI57
aI58
aI41
aI59
aI644
aI88
aI909
aI652
aI653
aI1193
aI1194
aI1195
aI1196
aI55
aI56
aI987
aI422
aI423
aI166
aI167
aI95
aI96
aI97
aI943
aI50
aI907
aI916
aI917
aI918
aI919
aI920
aI921
aI922
aI923
aI731
aI450
aa(lp85
I36
aI37
aI38
aI122
aI38
aI3
aI38
aI1197
aI38
aI123
aI38
aI1198
aI38
aI102
aI44
aI45
aI128
aI129
aI130
aI131
aI132
aI456
aI88
aI1199
aI1200
aI1201
aI1202
aI861
aI862
aI1203
aI133
aI134
aI135
aI1192
aI99
aI1204
aI832
aI1205
aI102
aI1005
aI450
aa(lp86
I36
aI1206
aI38
aI43
aI44
aI1207
aI1208
aI1209
aI204
aI97
aI67
aI58
aI68
aI69
aI70
aI71
aa(lp87
I36
aI180
aI38
aI73
aI38
aI125
aI38
aI1210
aI44
aI183
aI93
aI184
aI167
aI185
aI85
aI86
aI218
aI142
aI143
aI144
aI145
aI146
aI147
aI134
aI1211
aI1212
aI653
aI654
aI655
aI656
aa(lp88
I36
aI72
aI38
aI1003
aI38
aI74
aI44
aI80
aI81
aI82
aI83
aI84
aI85
aI1003
aI1213
aI89
aI90
aI91
aI92
aI93
aI457
aI425
aa(lp89
I36
aI254
aI38
aI2
aI38
aI3
aI38
aI1214
aI38
aI1215
aI38
aI123
aI38
aI1216
aI38
aI1217
aI38
aI1218
aI44
aI406
aI369
aI370
aI459
aI460
aI408
aI103
aI917
aI88
aI685
aI686
aI687
aI606
aI1219
aI1220
aI646
aI1221
aI1222
aI591
aI1223
aI147
aI134
aI135
aI901
aI1224
aI1216
aI617
aI1225
aI531
aI1226
aI1227
aI272
aI463
aI1228
aI1229
aI914
aI1218
aI1230
aI152
aa(lp90
I36
aI37
aI38
aI122
aI38
aI123
aI38
aI717
aI38
aI1231
aI44
aI45
aI128
aI129
aI130
aI131
aI132
aI133
aI134
aI135
aI723
aI724
aI717
aI725
aI726
aI499
aI1232
aI1233
aI1234
aI1235
aI1236
aI1237
aI1238
aI1239
aI450
aa(lp91
I36
aI1240
aI37
aI38
aI39
aI38
aI1241
aI38
aI123
aI38
aI717
aI38
aI1242
aI1243
aI38
aI1244
aI1243
aI38
aI1245
aI38
aI270
aI38
aI1246
aI1240
aI44
aI1247
aI1248
aI46
aI47
aI48
aI719
aI1249
aI1250
aI210
aI1251
aI56
aI722
aI134
aI135
aI723
aI724
aI717
aI725
aI1252
aI1253
aI1254
aI52
aI1255
aI1256
aI1257
aI1258
aI422
aI1259
aI1087
aI1260
aI1261
aI1262
aI516
aI600
aI1263
aI1257
aI1258
aI1264
aI1265
aI1266
aI1267
aI1268
aI1269
aI918
aI270
aI83
aI1270
aI1271
aI1272
aI673
aI1273
aI1274
aI1275
aI1276
aI1277
aa(lp92
I36
aI1278
aI38
aI1279
aI38
aI37
aI38
aI1280
aI38
aI123
aI38
aI127
aI44
aI1281
aI1282
aI145
aI146
aI1283
aI652
aI1284
aI1285
aI1286
aI1287
aI1034
aI1099
aI999
aI1288
aI686
aI1289
aI567
aI134
aI135
aI434
aI150
aI127
aI151
aI152
aa(lp93
I36
aI579
aI38
aI154
aI38
aI581
aI38
aI487
aI38
aI1290
aI38
aI1291
aI44
aI1292
aI585
aI498
aI161
aI154
aI162
aI1293
aI589
aI590
aI591
aI1223
aI1294
aI499
aI500
aI501
aI502
aI503
aI504
aI505
aI506
aI1295
aI1296
aI1297
aI870
aI1298
aI144
aI145
aI470
aI471
aa(lp94
I0
aI1
aI2
aI107
aI1299
aI249
aI76
aI0
aI7
aI8
aI9
aI10
aI11
aI12
aI13
aI14
aI15
aI628
aI275
aI107
aI276
aI326
aI1300
aI1301
aI1302
aI1303
aI862
aI1304
aI1305
aI327
aI328
aI329
aI330
aI1306
aI1307
aI100
aI101
aI102
aI2
aa(lp95
I36
aI180
aI38
aI73
aI38
aI437
aI38
aI255
aI38
aI1308
aI38
aI1309
aI38
aI1310
aI44
aI183
aI93
aI184
aI167
aI185
aI85
aI86
aI87
aI440
aI441
aI442
aI398
aI443
aI821
aI867
aI373
aI107
aI144
aI219
aI644
aI902
aI1311
aI1312
aI1313
aI354
aI1237
aI1314
aI1315
aI1316
aI1317
aI95
aI96
aI105
aI813
aI93
aI184
aI1318
aI1202
aI1319
aI1320
aI1321
aI1062
aI497
aI87
aI1322
aI1323
aI1320
aI675
aI796
aI797
aI450
aa(lp96
I36
aI37
aI38
aI1152
aI38
aI1324
aI38
aI43
aI44
aI45
aI1155
aI1156
aI312
aI1157
aI1158
aI1159
aI219
aI1325
aI513
aI514
aI1326
aI176
aI177
aI615
aI602
aI605
aI58
aI68
aI69
aI70
aI71
aa(lp97
I125
aI2
aI107
aI1327
aI1328
aI143
aI144
aI145
aI306
aI627
aI14
aI15
aI628
aI275
aI107
aI276
aI1329
aI1330
aI1331
aI1332
aI1333
aI1334
aI1084
aI1335
aI1336
aI1337
aI1338
aI1339
aI1340
aa(lp98
I1341
aI257
aI1342
aI1343
aI1344
aI107
aI1345
aI1341
aI7
aI1346
aI384
aI257
aI385
aI1347
aI1348
aI663
aI112
aI209
aI210
aI739
aI740
aI1349
aI1350
aI1351
aI743
aI1352
aI1353
aI1354
aI781
aI280
aI313
aI314
aI1355
aI1356
aI1357
aI1358
aI1359
aI1360
aI1361
aI628
aI275
aI107
aI276
aI1362
aI283
aI1363
aI1364
aI1365
aI491
aI1366
aI1367
aa(lp99
I36
aI37
aI38
aI39
aI38
aI716
aI38
aI123
aI38
aI1368
aI38
aI806
aI475
aI38
aI1369
aI44
aI45
aI46
aI47
aI48
aI719
aI686
aI720
aI721
aI55
aI56
aI722
aI134
aI135
aI723
aI1370
aI1368
aI1371
aI1372
aI85
aI806
aI1373
aI1374
aI479
aI1375
aI727
aI728
aI729
aI373
aI874
aI515
aI55
aI875
aI876
aa(lp100
I36
aI37
aI38
aI39
aI38
aI716
aI38
aI1376
aI38
aI717
aI38
aI1377
aI44
aI45
aI46
aI47
aI48
aI719
aI686
aI720
aI721
aI55
aI56
aI1378
aI867
aI455
aI1379
aI724
aI717
aI725
aI726
aI499
aI1042
aI1176
aI1177
aI1380
aI1381
aI119
aI295
aI1182
aI450
aa(lp101
I1341
aI798
aI1382
aI1383
aI1344
aI107
aI1384
aI1341
aI7
aI1385
aI803
aI798
aI306
aI1386
aI1387
aI1388
aI1389
aI1390
aI1391
aI1392
aI382
aI952
aI310
aI311
aI1393
aI64
aI1394
aI290
aI1355
aI1356
aI1357
aI1358
aI1359
aI1360
aI1361
aI628
aI275
aI107
aI276
aI627
aI347
aI105
aI813
aI119
aI1395
aI1396
aI1397
aI427
aa(lp102
I36
aI180
aI38
aI73
aI38
aI125
aI38
aI107
aI38
aI194
aI38
aI1113
aI38
aI2
aI38
aI75
aI38
aI1398
aI44
aI183
aI93
aI184
aI167
aI185
aI85
aI86
aI218
aI142
aI143
aI144
aI145
aI146
aI147
aI186
aI107
aI108
aI147
aI201
aI202
aI203
aI204
aI97
aI205
aI206
aI207
aI1115
aI1116
aI210
aI568
aI1399
aI408
aI103
aI104
aI96
aI97
aI98
aI1400
aI707
aI708
aI709
aI710
aI711
aI712
aI713
aI1401
aI876
aa(lp103
I0
aI1
aI2
aI3
aI1402
aI1403
aI1404
aI770
aI0
aI7
aI8
aI9
aI10
aI11
aI12
aI13
aI14
aI15
aI16
aI17
aI1405
aI1406
aI881
aI1407
aI1408
aI1409
aI276
aI1410
aI1411
aI1403
aI1412
aI1413
aI1414
aI1415
aI1416
aI1417
aI1418
aI1419
aI1420
aa(lp104
I1421
aI1422
aI1423
aI257
aI107
aI1424
aI244
aI246
aI1425
aI1358
aI1359
aI1360
aI1361
aI1426
aI368
aI1022
aI1427
aI1428
aI12
aI1429
aI283
aI284
aI1430
aI1431
aI1432
aI1433
aI1434
aI675
aI796
aI1435
aI383
aI384
aI257
aI385
aI291
aI275
aI107
aI276
aI1436
aI1437
aI1438
aI1439
aI1440
aI1441
aI1442
aI1443
aI301
aI302
aI303
aI304
aI305
aI306
aI309
aI310
aI311
aI312
aI280
aI313
aI1444
aa(lp105
I36
aI1445
aI38
aI3
aI38
aI1446
aI38
aI75
aI38
aI1447
aI44
aI1448
aI1040
aI1041
aI284
aI1430
aI1449
aI1450
aI447
aI83
aI993
aI88
aI1451
aI1452
aI1453
aI1391
aI1454
aI1455
aI1456
aI1457
aI96
aI97
aI1458
aI1253
aI1295
aI1459
aI1460
aI1461
aI211
aI212
aa(lp106
I36
aI180
aI38
aI73
aI38
aI437
aI38
aI1462
aI38
aI932
aI38
aI595
aI38
aI934
aI38
aI75
aI38
aI907
aI38
aI908
aI44
aI183
aI93
aI184
aI167
aI185
aI85
aI86
aI87
aI440
aI441
aI442
aI398
aI443
aI133
aI186
aI107
aI187
aI1463
aI931
aI935
aI936
aI937
aI938
aI939
aI513
aI514
aI515
aI516
aI600
aI601
aI602
aI941
aI520
aI521
aI522
aI207
aI690
aI691
aI524
aI525
aI131
aI796
aI942
aI104
aI96
aI97
aI943
aI50
aI907
aI916
aI917
aI918
aI919
aI920
aI921
aI922
aI923
aI731
aI450
aa(lp107
I36
aI37
aI38
aI122
aI38
aI3
aI38
aI74
aI38
aI75
aI38
aI1464
aI44
aI45
aI128
aI129
aI130
aI131
aI132
aI456
aI88
aI89
aI90
aI91
aI92
aI93
aI94
aI95
aI96
aI97
aI98
aI1400
aI707
aI1465
aI710
aI711
aI712
aI713
aI714
aI1466
aI1467
aa(lp108
I36
aI180
aI38
aI73
aI38
aI1147
aI38
aI3
aI38
aI74
aI38
aI75
aI38
aI76
aI44
aI183
aI93
aI184
aI167
aI185
aI85
aI86
aI87
aI440
aI441
aI442
aI162
aI1468
aI88
aI89
aI90
aI91
aI92
aI93
aI94
aI95
aI96
aI97
aI98
aI99
aI100
aI101
aI102
aI1005
aI450
aa(lp109
I1469
aI1287
aI2
aI1470
aI1471
aI1472
aI1469
aI1473
aI1474
aI1475
aI1287
aI762
aI1476
aI14
aI15
aI16
aI359
aI30
aI1477
aI299
aI950
aI1478
aI1479
aI1480
aI1481
aI1482
aI1483
aI1484
aa(lp110
I36
aI37
aI38
aI122
aI38
aI123
aI38
aI1485
aI38
aI126
aI38
aI3
aI38
aI487
aI38
aI488
aI44
aI45
aI128
aI129
aI130
aI131
aI132
aI133
aI134
aI135
aI651
aI879
aI856
aI474
aI1486
aI1487
aI900
aI148
aI456
aI88
aI512
aI499
aI500
aI501
aI502
aI503
aI504
aI505
aI506
aI507
aI904
aI152
aa(lp111
I36
aI664
aI38
aI2
aI38
aI438
aI38
aI1488
aI44
aI406
aI664
aI1141
aI1489
aI408
aI103
aI1490
aI161
aI154
aI445
aI446
aI236
aI992
aI1491
aI305
aI1492
aI447
aI509
aI71
aa(lp112
I254
aI2
aI107
aI1493
aI1494
aI1495
aI369
aI370
aI281
aI855
aI14
aI15
aI628
aI275
aI107
aI276
aI1496
aI1497
aI1498
aI1499
aI1500
aI1501
aI348
aI1502
aI1503
aI1494
aI678
aI1504
aI1505
aI1506
aI1507
aI1508
aa(lp113
I664
aI2
aI107
aI1509
aI666
aI1510
aI664
aI668
aI669
aI14
aI15
aI628
aI275
aI107
aI276
aI1511
aI1512
aI54
aI55
aI26
aI1513
aI677
aI678
aI1514
aI1515
aI1516
aI1517
aI1518
aI1519
aa(lp114
I36
aI37
aI38
aI122
aI38
aI1324
aI38
aI1520
aI44
aI45
aI128
aI129
aI130
aI131
aI132
aI658
aI513
aI514
aI1326
aI176
aI177
aI615
aI602
aI605
aI58
aI68
aI1521
aI69
aI70
aI71
aa(lp115
I36
aI664
aI38
aI798
aI38
aI1522
aI38
aI439
aI44
aI406
aI664
aI1141
aI901
aI902
aI798
aI146
aI1142
aI586
aI580
aI1523
aI59
aI236
aI173
aI174
aI175
aI176
aI447
aI448
aI449
aI450
aa(lp116
I36
aI254
aI38
aI798
aI38
aI1524
aI38
aI1214
aI38
aI934
aI38
aI1525
aI44
aI406
aI369
aI370
aI459
aI456
aI902
aI798
aI146
aI1283
aI1526
aI1527
aI1528
aI86
aI1100
aI686
aI687
aI606
aI1219
aI1529
aI520
aI521
aI522
aI207
aI690
aI691
aI524
aI525
aI131
aI796
aI942
aI409
aI85
aI1003
aI788
aI789
aI790
aI1530
aI485
aa(lp117
I1531
aI1532
aI1533
aI1534
aI1535
aI123
aI1536
aI41
aI107
aI1537
aI1538
aI1531
aI1539
aI1540
aI1541
aI1542
aI1543
aI382
aI1544
aI1545
aI1533
aI1546
aI1547
aI1548
aI1549
aI1550
aI1551
aI1552
aI1553
aI1554
aI837
aI838
aI416
aI1272
aI673
aI891
aI1555
aI338
aI339
aI1556
aI1557
aI1558
aI636
aI637
aI1559
aI1503
aI41
aI1560
aI274
aI275
aI107
aI276
aI1561
aI1562
aI1563
aI1564
aI1565
aI1566
aI1567
aI1568
aI297
aI298
aI299
aI349
aI350
aI1569
aI1570
aI1571
aI1572
aI1573
aI237
aI1574
aI202
aI468
aI1575
aI1576
aI1407
aI1577
aa(lp118
I0
aI1
aI2
aI107
aI1578
aI1579
aI0
aI7
aI8
aI9
aI10
aI11
aI12
aI13
aI14
aI15
aI628
aI275
aI107
aI276
aI1580
aI1581
aI1183
aI1582
aI1583
aI1584
aI613
aI1552
aI1553
aI1555
aI623
aI1237
aI1585
aI1586
aI1587
aI427
aa(lp119
I36
aI37
aI38
aI426
aI38
aI1588
aI38
aI43
aI44
aI45
aI428
aI429
aI430
aI431
aI432
aI1589
aI173
aI1590
aI1396
aI1591
aI1592
aI1593
aI1594
aI58
aI68
aI69
aI70
aI71
aa(lp120
I36
aI0
aI38
aI437
aI38
aI3
aI38
aI487
aI38
aI488
aI38
aI664
aI38
aI1595
aI38
aI1596
aI38
aI1597
aI44
aI771
aI0
aI140
aI576
aI440
aI441
aI442
aI398
aI443
aI456
aI88
aI512
aI499
aI500
aI501
aI502
aI503
aI504
aI505
aI506
aI507
aI455
aI189
aI142
aI664
aI1141
aI136
aI137
aI138
aI139
aI1598
aI1599
aI1600
aI1601
aI1602
aI1603
aI1604
aI1605
aI1606
aI874
aI515
aI55
aI875
aI876
aa(lp121
I1531
aI945
aI258
aI1607
aI1608
aI906
aI1609
aI260
aI244
aI1531
aI1539
aI1610
aI951
aI945
aI699
aI1611
aI265
aI266
aI387
aI388
aI389
aI270
aI271
aI272
aI273
aI390
aI1353
aI1612
aI1419
aI1613
aI1614
aI556
aI1615
aI1616
aI1617
aI1618
aI1619
aI1620
aI1085
aI1621
aI281
aI1622
aI310
aI311
aI312
aI280
aI313
aI1623
aI1107
aI55
aI26
aI1624
aI401
aI260
aI15
aI402
aI301
aI302
aI303
aI304
aI305
aI403
aa(lp122
I0
aI1
aI2
aI107
aI1197
aI1625
aI76
aI123
aI1626
aI0
aI7
aI8
aI9
aI10
aI11
aI12
aI13
aI14
aI15
aI628
aI275
aI107
aI276
aI326
aI1627
aI1201
aI1202
aI861
aI862
aI1304
aI1305
aI1503
aI41
aI1628
aI1629
aI1306
aI1307
aI100
aI101
aI102
aI15
aI628
aI338
aI339
aI1630
aI954
aI1295
aI1296
aI1631
aI1632
aI561
aa(lp123
I1341
aI579
aI154
aI1633
aI3
aI1634
aI1635
aI1341
aI7
aI1346
aI1541
aI1636
aI1637
aI635
aI154
aI1638
aI1639
aI1640
aI1641
aI1642
aI1433
aI1643
aI1580
aI17
aI1644
aI1503
aI41
aI1628
aI1645
aI423
aI1646
aI1647
aI347
aI1648
aI1649
aI1650
aI112
aI209
aI210
aI561
aa(lp124
I36
aI37
aI38
aI1651
aI38
aI3
aI38
aI74
aI44
aI45
aI428
aI429
aI1651
aI432
aI993
aI88
aI89
aI90
aI91
aI92
aI93
aI457
aI425
aa(lp125
I254
aI618
aI2
aI527
aI1652
aI369
aI370
aI281
aI337
aI623
aI624
aI625
aI626
aI627
aI14
aI15
aI1653
aI1654
aI1655
aI855
aI347
aI1656
aI1657
aI1658
aI1659
aI1660
aI1661
aI55
aI1662
aa(lp126
I36
aI37
aI38
aI39
aI38
aI1663
aI38
aI41
aI38
aI1664
aI38
aI43
aI44
aI45
aI46
aI47
aI48
aI49
aI50
aI1665
aI53
aI54
aI55
aI56
aI57
aI58
aI41
aI59
aI644
aI47
aI1666
aI747
aI748
aI749
aI750
aI153
aI159
aI67
aI58
aI68
aI69
aI70
aI71
aa(lp127
I36
aI125
aI38
aI1279
aI38
aI37
aI38
aI581
aI38
aI1667
aI44
aI406
aI143
aI144
aI145
aI146
aI1283
aI652
aI1284
aI1285
aI1286
aI1287
aI1034
aI1099
aI999
aI1668
aI589
aI590
aI591
aI1223
aI109
aI1669
aI1670
aI1671
aI1672
aI1673
aI1467
aa(lp128
I36
aI180
aI38
aI73
aI38
aI437
aI38
aI1674
aI38
aI777
aI38
aI75
aI38
aI696
aI44
aI183
aI93
aI184
aI167
aI185
aI85
aI86
aI87
aI440
aI441
aI442
aI398
aI443
aI456
aI1322
aI1675
aI687
aI69
aI688
aI689
aI520
aI521
aI522
aI207
aI690
aI691
aI524
aI525
aI131
aI132
aI460
aI96
aI97
aI98
aI1400
aI707
aI708
aI709
aI710
aI711
aI712
aI713
aI714
aI1466
aI1467
aa(lp129
I0
aI1
aI2
aI3
aI1402
aI0
aI7
aI8
aI9
aI10
aI11
aI12
aI13
aI14
aI15
aI16
aI17
aI1405
aI1406
aI881
aI1407
aI1408
aI1409
aI245
aa(lp130
I125
aI2
aI1676
aI1677
aI143
aI144
aI145
aI306
aI627
aI14
aI15
aI16
aI359
aI166
aI419
aI376
aI1678
aI1320
aI1679
aI1680
aI1681
aI283
aI1363
aI1364
aI1365
aI1682
aI641
aa(lp131
I36
aI1683
aI38
aI73
aI38
aI1684
aI38
aI1685
aI38
aI1686
aI38
aI1687
aI44
aI1688
aI653
aI0
aI140
aI1689
aI85
aI86
aI147
aI186
aI1690
aI1691
aI1692
aI421
aI422
aI1693
aI204
aI97
aI1694
aI85
aI806
aI1695
aI1696
aI1697
aa(lp132
I36
aI1698
aI38
aI37
aI38
aI426
aI38
aI1664
aI38
aI683
aI44
aI1699
aI1700
aI1489
aI999
aI428
aI429
aI430
aI431
aI432
aI993
aI47
aI1666
aI747
aI748
aI749
aI750
aI153
aI159
aI1701
aI686
aI687
aI69
aI70
aI71
aa(lp133
I36
aI0
aI38
aI437
aI38
aI107
aI38
aI1702
aI44
aI771
aI0
aI140
aI576
aI440
aI441
aI442
aI398
aI443
aI133
aI186
aI107
aI108
aI218
aI129
aI1703
aI192
aI107
aI144
aI120
aI121
aa(lp134
I1341
aI257
aI107
aI1424
aI244
aI246
aI1704
aI107
aI1705
aI666
aI107
aI1706
aI1707
aI1341
aI7
aI1346
aI384
aI257
aI385
aI291
aI275
aI107
aI276
aI1436
aI1437
aI1438
aI1439
aI1440
aI1441
aI1442
aI1443
aI301
aI302
aI303
aI304
aI305
aI306
aI309
aI310
aI311
aI312
aI280
aI313
aI314
aI1347
aI1708
aI1709
aI1710
aI272
aI273
aI274
aI275
aI107
aI276
aI1711
aI375
aI1712
aI313
aI890
aI272
aI295
aI1408
aI1713
aI1714
aI1715
aI1716
aI677
aI678
aI679
aI275
aI107
aI276
aI680
aI1717
aI1718
aI1719
aI1720
aI1721
aI1722
aI314
aI1723
aI1724
aI1725
aI1726
aI1727
aI1728
aI1729
aI641
aa(lp135
I36
aI37
aI38
aI1007
aI38
aI1730
aI38
aI43
aI44
aI45
aI1731
aI1014
aI1015
aI1016
aI1017
aI605
aI173
aI1732
aI1733
aI1734
aI1672
aI1593
aI1594
aI58
aI68
aI69
aI70
aI71
aa(lp136
I1341
aI1735
aI1736
aI1737
aI123
aI1738
aI107
aI246
aI666
aI1739
aI1740
aI1341
aI7
aI1741
aI1742
aI1735
aI699
aI628
aI1743
aI1744
aI1592
aI1745
aI1746
aI1747
aI1748
aI1749
aI1750
aI1751
aI1752
aI308
aI1753
aI1754
aI1755
aI844
aI290
aI291
aI338
aI339
aI1756
aI1757
aI289
aI1758
aI555
aI556
aI1759
aI1555
aI275
aI107
aI276
aI309
aI310
aI311
aI312
aI280
aI313
aI314
aI857
aI677
aI678
aI1760
aI347
aI1761
aI1092
aI1762
aI1763
aI1764
aI209
aI1765
aI1766
aI1767
aI383
aI384
aI1768
aI1769
aI1770
aI1771
aI1772
aI1773
aa(lp137
I36
aI180
aI38
aI73
aI38
aI1147
aI38
aI126
aI38
aI3
aI38
aI74
aI44
aI183
aI93
aI184
aI167
aI185
aI85
aI86
aI87
aI440
aI441
aI442
aI162
aI1149
aI148
aI456
aI88
aI89
aI90
aI91
aI92
aI93
aI457
aI425
aa(lp138
I36
aI37
aI38
aI122
aI38
aI3
aI38
aI74
aI38
aI75
aI38
aI1774
aI38
aI1775
aI38
aI1776
aI38
aI1777
aI44
aI45
aI128
aI129
aI130
aI131
aI132
aI456
aI88
aI89
aI90
aI91
aI92
aI93
aI94
aI95
aI96
aI97
aI205
aI206
aI1297
aI961
aI1778
aI1779
aI463
aI1780
aI1781
aI298
aI159
aI1782
aI1783
aI1776
aI518
aI1784
aI1156
aI312
aI521
aI731
aI450
aa(lp139
I36
aI37
aI38
aI39
aI38
aI40
aI38
aI41
aI38
aI1785
aI44
aI45
aI46
aI47
aI48
aI49
aI50
aI51
aI52
aI53
aI54
aI55
aI56
aI57
aI58
aI41
aI59
aI1325
aI727
aI728
aI729
aI373
aI107
aI1786
aI731
aI450
aa(lp140
I36
aI1787
aI38
aI2
aI38
aI107
aI38
aI74
aI44
aI1788
aI1789
aI1282
aI145
aI146
aI407
aI408
aI103
aI461
aI186
aI107
aI108
aI1790
aI90
aI91
aI92
aI93
aI457
aI425
aa(lp141
I36
aI37
aI38
aI122
aI38
aI123
aI38
aI717
aI38
aI3
aI38
aI1791
aI38
aI1792
aI38
aI125
aI38
aI153
aI38
aI37
aI38
aI717
aI38
aI527
aI44
aI45
aI128
aI129
aI130
aI131
aI132
aI133
aI134
aI135
aI723
aI724
aI717
aI725
aI1793
aI88
aI1199
aI58
aI1794
aI1795
aI1796
aI1797
aI112
aI209
aI210
aI568
aI1458
aI724
aI712
aI1798
aI1408
aI1799
aI1800
aI1801
aI142
aI143
aI144
aI145
aI146
aI1294
aI164
aI153
aI159
aI1399
aI999
aI1802
aI724
aI717
aI725
aI1803
aI528
aI1804
aI152
aa(lp142
I36
aI620
aI38
aI1805
aI38
aI1806
aI38
aI43
aI44
aI1807
aI620
aI1808
aI1809
aI161
aI169
aI636
aI1810
aI1811
aI639
aI640
aI1168
aI1812
aI173
aI557
aI1492
aI1321
aI1672
aI1593
aI1594
aI58
aI68
aI69
aI70
aI71
aa(lp143
I36
aI37
aI38
aI122
aI38
aI1813
aI38
aI43
aI44
aI45
aI128
aI129
aI130
aI131
aI132
aI1814
aI1019
aI611
aI1815
aI1816
aI1817
aI1818
aI601
aI602
aI605
aI58
aI68
aI69
aI70
aI71
aa(lp144
I664
aI1819
aI834
aI664
aI668
aI1820
aI1821
aI1822
aI280
aI127
aI1823
aI1824
aI845
aI846
aI847
aI848
aI849
aI850
aI1825
aa(lp145
I36
aI37
aI38
aI39
aI38
aI40
aI38
aI41
aI38
aI3
aI38
aI1826
aI44
aI45
aI46
aI47
aI48
aI49
aI50
aI51
aI52
aI53
aI54
aI55
aI56
aI57
aI58
aI41
aI59
aI644
aI88
aI89
aI90
aI91
aI1827
aI1828
aI1829
aI471
aa(lp146
I36
aI72
aI38
aI73
aI38
aI3
aI38
aI1830
aI44
aI80
aI81
aI82
aI83
aI84
aI85
aI86
aI87
aI88
aI832
aI520
aI521
aI1831
aI1832
aI691
aI524
aI525
aI131
aI526
aI152
aa(lp147
I36
aI37
aI38
aI122
aI38
aI123
aI38
aI1485
aI38
aI123
aI38
aI3
aI38
aI488
aI38
aI1833
aI38
aI123
aI38
aI1834
aI44
aI45
aI128
aI129
aI130
aI131
aI132
aI133
aI134
aI135
aI651
aI879
aI856
aI474
aI1486
aI1487
aI900
aI134
aI135
aI901
aI88
aI832
aI504
aI505
aI506
aI507
aI455
aI508
aI1835
aI1836
aI1837
aI1838
aI1839
aI134
aI135
aI1840
aI1835
aI1841
aI1842
aI1843
aI471
aa(lp148
I36
aI37
aI38
aI39
aI38
aI40
aI38
aI41
aI38
aI1844
aI38
aI1845
aI44
aI45
aI46
aI47
aI48
aI49
aI50
aI51
aI52
aI53
aI54
aI55
aI56
aI57
aI58
aI41
aI59
aI1846
aI546
aI515
aI516
aI600
aI601
aI602
aI223
aI221
aI213
aI600
aI731
aI450
aa(lp149
I1847
aI1532
aI1848
aI1849
aI1850
aI1851
aI370
aI281
aI1852
aI1541
aI1542
aI1543
aI382
aI1853
aI1854
aI496
aI1063
aI273
aI1855
aI1856
aI1857
aI1365
aI1858
aI113
aI55
aI26
aI1859
aI805
aI1003
aI782
aI1860
aa(lp150
I36
aI125
aI38
aI2
aI38
aI3
aI38
aI982
aI38
aI1861
aI769
aI769
aI44
aI406
aI143
aI144
aI145
aI146
aI407
aI408
aI103
aI917
aI88
aI909
aI652
aI653
aI654
aI984
aI985
aI986
aI55
aI56
aI987
aI422
aI1862
aI1863
aI1864
aI1865
aa(lp151
I36
aI125
aI38
aI2
aI38
aI107
aI38
aI1866
aI38
aI1867
aI38
aI1868
aI44
aI406
aI143
aI144
aI145
aI146
aI407
aI408
aI103
aI461
aI186
aI107
aI108
aI1225
aI429
aI787
aI1771
aI1869
aI1870
aI521
aI522
aI1297
aI961
aI1249
aI1871
aI298
aI131
aI132
aI149
aI150
aI1872
aI1873
aI1874
aI1829
aI471
aa(lp152
I36
aI1875
aI38
aI437
aI38
aI107
aI38
aI182
aI44
aI771
aI1141
aI901
aI440
aI441
aI442
aI398
aI443
aI133
aI186
aI107
aI108
aI218
aI190
aI191
aI127
aI192
aI107
aI144
aI120
aI121
aa(lp153
I36
aI180
aI38
aI73
aI38
aI107
aI38
aI1876
aI38
aI1877
aI44
aI183
aI93
aI184
aI167
aI185
aI85
aI86
aI147
aI186
aI107
aI108
aI218
aI190
aI191
aI127
aI1878
aI119
aI219
aI200
aI134
aI966
aI967
aI968
aI1879
aI1880
aI970
aI532
aI533
aa(lp154
I36
aI37
aI38
aI39
aI38
aI1881
aI38
aI75
aI38
aI1882
aI38
aI3
aI38
aI924
aI38
aI123
aI38
aI127
aI44
aI45
aI46
aI47
aI48
aI1457
aI96
aI105
aI813
aI119
aI295
aI1883
aI1884
aI1885
aI432
aI1099
aI96
aI97
aI67
aI992
aI81
aI82
aI343
aI1107
aI55
aI56
aI1886
aI88
aI645
aI99
aI925
aI926
aI927
aI497
aI147
aI134
aI135
aI434
aI150
aI127
aI151
aI152
aa(lp155
I254
aI2
aI107
aI1887
aI1888
aI75
aI107
aI1889
aI369
aI370
aI281
aI855
aI14
aI15
aI628
aI275
aI107
aI276
aI1555
aI1890
aI897
aI166
aI419
aI923
aI522
aI1891
aI1892
aI1893
aI1894
aI1895
aI1896
aI1897
aI55
aI26
aI1898
aI347
aI348
aI356
aI275
aI107
aI276
aI1899
aI1557
aI1900
aI1287
aI1901
aa(lp156
I36
aI125
aI38
aI153
aI38
aI37
aI38
aI1902
aI38
aI595
aI38
aI43
aI44
aI406
aI143
aI144
aI145
aI146
aI1294
aI164
aI153
aI159
aI1399
aI999
aI1288
aI1778
aI1903
aI1294
aI513
aI514
aI515
aI516
aI600
aI601
aI602
aI605
aI58
aI68
aI69
aI70
aI71
aa(lp157
I36
aI180
aI38
aI73
aI38
aI1147
aI38
aI982
aI44
aI183
aI93
aI184
aI167
aI185
aI85
aI86
aI87
aI440
aI441
aI442
aI162
aI1904
aI652
aI653
aI654
aI984
aI985
aI986
aI55
aI875
aI876
aa(lp158
I36
aI72
aI38
aI73
aI38
aI3
aI38
aI1905
aI44
aI80
aI81
aI82
aI83
aI84
aI85
aI86
aI87
aI88
aI832
aI520
aI521
aI522
aI523
aI793
aI794
aI795
aI525
aI131
aI1125
aI1906
aI1907
aa(lp159
I36
aI254
aI38
aI2
aI38
aI107
aI38
aI1702
aI38
aI1007
aI44
aI406
aI369
aI370
aI459
aI460
aI408
aI103
aI461
aI186
aI107
aI108
aI218
aI129
aI1703
aI192
aI107
aI144
aI219
aI1908
aI1014
aI1015
aI1016
aI1909
aI471
aa(lp160
I36
aI72
aI38
aI73
aI38
aI3
aI38
aI1215
aI38
aI123
aI38
aI717
aI38
aI43
aI44
aI80
aI81
aI82
aI83
aI84
aI85
aI86
aI87
aI88
aI645
aI646
aI1221
aI1222
aI591
aI1223
aI147
aI134
aI135
aI723
aI724
aI717
aI725
aI1812
aI58
aI68
aI69
aI70
aI71
aa(lp161
I36
aI180
aI38
aI73
aI38
aI437
aI38
aI3
aI38
aI1910
aI44
aI183
aI93
aI184
aI167
aI185
aI85
aI86
aI87
aI440
aI441
aI442
aI398
aI443
aI456
aI88
aI832
aI520
aI521
aI522
aI207
aI1187
aI1911
aI1912
aI524
aI525
aI131
aI526
aI152
aa(lp162
I36
aI550
aI38
aI73
aI38
aI123
aI38
aI255
aI38
aI1913
aI44
aI490
aI105
aI491
aI552
aI553
aI554
aI555
aI556
aI497
aI421
aI85
aI86
aI147
aI134
aI135
aI1914
aI867
aI373
aI107
aI144
aI219
aI644
aI1322
aI1323
aI1320
aI177
aI1915
aI238
aI152
aa(lp163
I1531
aI1532
aI1916
aI246
aI1917
aI398
aI1344
aI1918
aI1919
aI1531
aI1539
aI1540
aI1541
aI1542
aI1543
aI382
aI1920
aI1921
aI1922
aI1923
aI1924
aI1925
aI1926
aI1927
aI1928
aI1282
aI295
aI1929
aI952
aI310
aI311
aI312
aI280
aI313
aI314
aI1355
aI1930
aI614
aI615
aI1133
aI295
aI1929
aI1853
aI1931
aI398
aI399
aI1932
aI1356
aI1357
aI1358
aI1359
aI1360
aI1361
aI1933
aI9
aI1934
aI322
aI1935
aI1936
aI1937
aI1938
aI1939
aI309
aI1940
aI1440
aI1941
aI673
aI1776
aI1942
aa(lp164
I36
aI37
aI38
aI122
aI38
aI123
aI38
aI1943
aI38
aI43
aI44
aI45
aI128
aI129
aI130
aI131
aI132
aI133
aI134
aI135
aI434
aI150
aI127
aI1944
aI1945
aI557
aI1492
aI1321
aI1672
aI1593
aI1594
aI58
aI68
aI69
aI70
aI71
aa(lp165
I36
aI180
aI38
aI73
aI38
aI437
aI38
aI107
aI38
aI1946
aI44
aI183
aI93
aI184
aI167
aI185
aI85
aI86
aI87
aI440
aI441
aI442
aI398
aI443
aI133
aI186
aI107
aI108
aI218
aI190
aI1282
aI467
aI468
aI192
aI107
aI144
aI120
aI121
aa(lp166
I36
aI180
aI38
aI73
aI38
aI125
aI38
aI575
aI44
aI183
aI93
aI184
aI167
aI185
aI85
aI86
aI218
aI142
aI143
aI144
aI145
aI146
aI147
aI134
aI577
aI578
aI127
aI151
aI152
aa(lp167
I36
aI37
aI38
aI1027
aI38
aI1007
aI38
aI123
aI38
aI894
aI38
aI123
aI38
aI3
aI38
aI487
aI38
aI505
aI38
aI1376
aI44
aI45
aI128
aI1947
aI1031
aI1032
aI1033
aI1034
aI1175
aI1014
aI1015
aI1016
aI1017
aI147
aI134
aI135
aI567
aI896
aI897
aI898
aI899
aI900
aI134
aI135
aI901
aI88
aI512
aI499
aI500
aI501
aI502
aI503
aI504
aI505
aI1948
aI1949
aI867
aI904
aI152
aa(lp168
I1847
aI1950
aI1951
aI257
aI107
aI1952
aI244
aI246
aI123
aI1851
aI370
aI281
aI337
aI275
aI391
aI1953
aI316
aI1954
aI1362
aI283
aI284
aI1955
aI1858
aI113
aI516
aI1450
aI675
aI796
aI1435
aI383
aI384
aI257
aI385
aI291
aI275
aI107
aI276
aI1956
aI1957
aI329
aI1958
aI1959
aI1960
aI1961
aI301
aI302
aI303
aI304
aI305
aI306
aI309
aI310
aI311
aI312
aI280
aI313
aI314
aI291
aI338
aI123
aa(lp169
I36
aI37
aI38
aI39
aI38
aI716
aI38
aI123
aI38
aI717
aI38
aI3
aI38
aI1962
aI44
aI45
aI46
aI47
aI48
aI719
aI686
aI720
aI721
aI55
aI56
aI722
aI134
aI135
aI723
aI724
aI717
aI725
aI1793
aI88
aI512
aI164
aI1963
aI1964
aI904
aI152
aa(lp170
I254
aI2
aI107
aI1887
aI1965
aI75
aI107
aI1966
aI369
aI370
aI281
aI855
aI14
aI15
aI628
aI275
aI107
aI276
aI1555
aI1890
aI897
aI166
aI419
aI923
aI522
aI1891
aI1967
aI1968
aI1969
aI1364
aI1365
aI778
aI1970
aI299
aI1971
aI347
aI348
aI356
aI275
aI107
aI276
aI1899
aI1557
aI1558
aI760
aI761
aI1901
aa(lp171
I36
aI180
aI38
aI73
aI38
aI437
aI38
aI438
aI38
aI255
aI38
aI1140
aI44
aI183
aI93
aI184
aI167
aI185
aI85
aI86
aI87
aI440
aI441
aI442
aI398
aI443
aI444
aI161
aI154
aI445
aI446
aI220
aI867
aI373
aI107
aI144
aI219
aI236
aI992
aI1143
aI176
aI447
aI448
aI449
aI450
aa(lp172
I36
aI37
aI38
aI122
aI38
aI123
aI38
aI1972
aI38
aI437
aI38
aI3
aI38
aI683
aI38
aI777
aI44
aI45
aI128
aI129
aI130
aI131
aI132
aI133
aI134
aI135
aI1973
aI1974
aI1975
aI1976
aI140
aI576
aI440
aI441
aI442
aI398
aI443
aI456
aI88
aI685
aI686
aI687
aI69
aI688
aI689
aI520
aI521
aI522
aI207
aI690
aI691
aI524
aI525
aI131
aI526
aI152
aa(lp173
I36
aI37
aI38
aI122
aI38
aI123
aI38
aI894
aI38
aI123
aI38
aI1977
aI38
aI487
aI38
aI488
aI44
aI45
aI128
aI129
aI130
aI131
aI132
aI133
aI134
aI135
aI567
aI896
aI897
aI898
aI899
aI900
aI134
aI135
aI901
aI1978
aI1979
aI1980
aI499
aI500
aI501
aI502
aI503
aI504
aI505
aI506
aI507
aI904
aI152
aa(lp174
I36
aI1698
aI38
aI37
aI38
aI579
aI1117
aI38
aI122
aI38
aI575
aI44
aI1699
aI1700
aI1489
aI999
aI1121
aI584
aI1122
aI1123
aI1117
aI1124
aI189
aI129
aI130
aI131
aI132
aI133
aI134
aI577
aI578
aI127
aI151
aI152
aa(lp175
I36
aI37
aI38
aI122
aI38
aI123
aI38
aI717
aI38
aI1981
aI44
aI45
aI128
aI129
aI130
aI131
aI132
aI133
aI134
aI135
aI723
aI724
aI717
aI725
aI726
aI727
aI728
aI729
aI373
aI1982
aI1983
aI450
aa(lp176
I664
aI798
aI107
aI1984
aI1985
aI666
aI107
aI1986
aI1987
aI664
aI668
aI1988
aI803
aI798
aI306
aI1555
aI275
aI107
aI276
aI326
aI1503
aI1794
aI1364
aI1162
aI1989
aI55
aI26
aI1990
aI1991
aI1992
aI192
aI107
aI144
aI295
aI1929
aI1853
aI677
aI678
aI679
aI275
aI107
aI276
aI680
aI1993
aI1365
aI813
aI1885
aI290
aI845
aI1994
aI207
aI208
aI1878
aI730
aI1942
aa(lp177
I36
aI1995
aI38
aI593
aI38
aI122
aI38
aI123
aI38
aI560
aI38
aI125
aI38
aI123
aI38
aI127
aI44
aI80
aI1491
aI1996
aI1883
aI1297
aI1997
aI990
aI1998
aI129
aI130
aI131
aI132
aI133
aI134
aI135
aI136
aI137
aI564
aI565
aI566
aI1999
aI142
aI143
aI144
aI145
aI146
aI147
aI134
aI135
aI434
aI150
aI127
aI151
aI152
aa(lp178
I36
aI37
aI38
aI39
aI38
aI1663
aI38
aI41
aI38
aI3
aI38
aI74
aI44
aI45
aI46
aI47
aI48
aI49
aI50
aI1665
aI53
aI54
aI55
aI56
aI57
aI58
aI41
aI59
aI644
aI88
aI89
aI90
aI91
aI92
aI93
aI457
aI425
aa(lp179
I36
aI2000
aI38
aI154
aI38
aI2001
aI38
aI3
aI38
aI777
aI44
aI2002
aI1363
aI1032
aI1033
aI1034
aI1035
aI161
aI154
aI162
aI2003
aI520
aI1040
aI1041
aI1042
aI1043
aI2004
aI2005
aI1651
aI432
aI993
aI88
aI832
aI520
aI521
aI522
aI207
aI690
aI691
aI524
aI525
aI131
aI526
aI152
aa(lp180
I36
aI593
aI1171
aI38
aI1007
aI38
aI123
aI38
aI124
aI38
aI437
aI38
aI3
aI38
aI2006
aI44
aI596
aI1173
aI1174
aI1175
aI1014
aI1015
aI1016
aI1017
aI147
aI134
aI135
aI136
aI137
aI138
aI139
aI140
aI576
aI440
aI441
aI442
aI398
aI443
aI456
aI88
aI832
aI520
aI521
aI522
aI523
aI793
aI2007
aI691
aI524
aI525
aI131
aI526
aI152
aa(lp181
I0
aI1
aI2
aI1860
aI2008
aI2009
aI0
aI7
aI8
aI9
aI10
aI11
aI12
aI13
aI14
aI15
aI16
aI1930
aI299
aI2010
aI2011
aI2012
aI2013
aI2014
aI2009
aI2015
aa(lp182
I36
aI180
aI38
aI73
aI38
aI2016
aI38
aI437
aI38
aI107
aI38
aI2017
aI38
aI2018
aI38
aI2019
aI38
aI117
aI44
aI183
aI93
aI184
aI167
aI185
aI85
aI86
aI1283
aI1526
aI1527
aI1528
aI2020
aI2021
aI874
aI515
aI55
aI56
aI1886
aI440
aI441
aI442
aI398
aI443
aI133
aI186
aI107
aI108
aI421
aI1264
aI1265
aI1391
aI1454
aI2022
aI2023
aI569
aI2024
aI2025
aI987
aI410
aI2026
aI1227
aI272
aI1395
aI2027
aI2028
aI902
aI117
aI1001
aI152
aa(lp183
I36
aI107
aI38
aI182
aI38
aI2029
aI38
aI214
aI38
aI215
aI38
aI2030
aI44
aI217
aI107
aI108
aI218
aI190
aI191
aI127
aI192
aI107
aI144
aI219
aI2031
aI1526
aI2029
aI568
aI569
aI224
aI214
aI225
aI226
aI227
aI228
aI2032
aI2033
aI2034
aI2035
aI2036
aI2037
aa(lp184
I36
aI180
aI38
aI73
aI38
aI437
aI38
aI3
aI38
aI777
aI38
aI75
aI38
aI2038
aI38
aI908
aI44
aI183
aI93
aI184
aI167
aI185
aI85
aI86
aI87
aI440
aI441
aI442
aI398
aI443
aI456
aI88
aI832
aI520
aI521
aI522
aI207
aI690
aI691
aI524
aI525
aI131
aI132
aI460
aI96
aI97
aI943
aI2039
aI2038
aI2040
aI901
aI918
aI919
aI920
aI921
aI922
aI923
aI731
aI450
aa(lp185
I1847
aI798
aI107
aI2041
aI2042
aI666
aI1609
aI1739
aI2043
aI1851
aI370
aI281
aI1932
aI803
aI798
aI306
aI1555
aI275
aI107
aI276
aI1386
aI2044
aI2045
aI1911
aI2046
aI2047
aI2048
aI2049
aI1933
aI1968
aI2026
aI1227
aI1776
aI382
aI1853
aI677
aI678
aI2050
aI310
aI311
aI312
aI280
aI313
aI1623
aI1107
aI55
aI26
aI1898
aI347
aI1761
aI1092
aI1762
aI1763
aI1764
aI209
aI1765
aI1766
aI1767
aI383
aI384
aI1768
aI1769
aI1770
aI1771
aI1772
aI1392
aI1942
aa(lp186
I664
aI2051
aI834
aI664
aI668
aI836
aI837
aI838
aI1057
aI1190
aI1754
aI1755
aI844
aI290
aI845
aI846
aI847
aI848
aI849
aI850
aI1825
aa(lp187
I36
aI37
aI38
aI39
aI38
aI75
aI38
aI2052
aI38
aI2053
aI38
aI270
aI38
aI37
aI38
aI122
aI38
aI123
aI38
aI127
aI38
aI595
aI38
aI43
aI44
aI45
aI46
aI47
aI48
aI1457
aI96
aI97
aI205
aI2054
aI2055
aI1286
aI502
aI2056
aI61
aI62
aI781
aI280
aI1213
aI2057
aI918
aI270
aI83
aI1099
aI999
aI128
aI129
aI130
aI131
aI132
aI133
aI134
aI135
aI434
aI150
aI127
aI459
aI658
aI513
aI514
aI515
aI516
aI600
aI601
aI602
aI605
aI58
aI68
aI69
aI70
aI71
aa(lp188
I36
aI37
aI38
aI39
aI38
aI40
aI38
aI41
aI38
aI3
aI38
aI2053
aI38
aI213
aI44
aI45
aI46
aI47
aI48
aI49
aI50
aI51
aI52
aI53
aI54
aI55
aI56
aI57
aI58
aI41
aI59
aI644
aI88
aI780
aI61
aI62
aI781
aI280
aI1213
aI2058
aI221
aI213
aI603
aI471
aa(lp189
I36
aI2059
aI38
aI73
aI38
aI1860
aI38
aI117
aI38
aI2060
aI44
aI80
aI2061
aI2062
aI2063
aI84
aI85
aI86
aI87
aI918
aI159
aI2028
aI902
aI117
aI599
aI961
aI2064
aI29
aI166
aI419
aI2065
aI2066
aI2067
aI1697
aa(lp190
I36
aI37
aI38
aI122
aI38
aI3
aI38
aI1197
aI38
aI249
aI38
aI1464
aI38
aI123
aI38
aI2068
aI44
aI45
aI128
aI129
aI130
aI131
aI132
aI456
aI88
aI1199
aI1200
aI1201
aI1202
aI861
aI862
aI1203
aI508
aI173
aI328
aI329
aI2069
aI2070
aI1400
aI707
aI1465
aI710
aI711
aI712
aI713
aI714
aI2071
aI2072
aI134
aI135
aI1192
aI99
aI2073
aI2074
aI1005
aI450
aa(lp191
I1847
aI1951
aI257
aI107
aI2075
aI2076
aI769
aI305
aI246
aI123
aI1851
aI370
aI281
aI282
aI283
aI284
aI1955
aI1858
aI113
aI516
aI1450
aI675
aI796
aI1435
aI383
aI384
aI257
aI385
aI291
aI275
aI107
aI276
aI2077
aI2078
aI2079
aI2080
aI2081
aI2082
aI2083
aI2084
aI2085
aI301
aI2086
aI2087
aI2088
aI305
aI306
aI309
aI310
aI311
aI312
aI280
aI313
aI314
aI291
aI338
aI123
aa(lp192
I2089
aI2
aI2090
aI2091
aI664
aI2092
aI2093
aI630
aI14
aI15
aI16
aI359
aI2094
aI387
aI2095
aI2096
aI2097
aI2098
aI2099
aI2100
aI2101
aa(lp193
I36
aI2102
aI38
aI73
aI38
aI123
aI38
aI3
aI38
aI500
aI769
aI38
aI488
aI44
aI1448
aI289
aI2103
aI2104
aI305
aI1040
aI1763
aI225
aI2105
aI85
aI86
aI147
aI134
aI135
aI901
aI88
aI512
aI499
aI500
aI2106
aI2107
aI2108
aI504
aI505
aI506
aI507
aI904
aI152
aa(lp194
I36
aI180
aI38
aI73
aI38
aI2109
aI38
aI437
aI38
aI438
aI38
aI551
aI44
aI183
aI93
aI184
aI167
aI185
aI85
aI86
aI421
aI410
aI968
aI781
aI146
aI87
aI440
aI441
aI442
aI398
aI443
aI444
aI161
aI154
aI445
aI446
aI236
aI173
aI557
aI558
aI559
aI82
aI448
aI449
aI450
aa(lp195
I36
aI2
aI38
aI2110
aI38
aI2111
aI38
aI666
aI38
aI107
aI38
aI74
aI44
aI960
aI103
aI461
aI186
aI2112
aI370
aI1218
aI2113
aI107
aI108
aI1225
aI2114
aI2115
aI1666
aI86
aI223
aI2116
aI1219
aI2117
aI186
aI107
aI108
aI1790
aI90
aI91
aI92
aI93
aI457
aI425
aa(lp196
I36
aI37
aI38
aI122
aI38
aI123
aI38
aI1280
aI38
aI2118
aI44
aI45
aI128
aI129
aI130
aI131
aI132
aI133
aI134
aI135
aI2119
aI686
aI1289
aI651
aI1526
aI2120
aI984
aI985
aI986
aI55
aI875
aI876
aa(lp197
I36
aI37
aI38
aI39
aI38
aI40
aI38
aI41
aI38
aI2121
aI38
aI2122
aI44
aI45
aI46
aI47
aI48
aI49
aI50
aI51
aI52
aI53
aI54
aI55
aI56
aI57
aI58
aI41
aI59
aI1846
aI2123
aI2124
aI867
aI92
aI93
aI2125
aI2126
aI450
aa(lp198
I36
aI37
aI38
aI39
aI38
aI40
aI38
aI41
aI38
aI3
aI38
aI2127
aI38
aI123
aI38
aI717
aI38
aI2128
aI44
aI45
aI46
aI47
aI48
aI49
aI50
aI51
aI52
aI53
aI54
aI55
aI56
aI57
aI58
aI41
aI59
aI644
aI88
aI645
aI646
aI1221
aI1482
aI1842
aI497
aI147
aI134
aI135
aI723
aI724
aI717
aI725
aI2129
aI1271
aI2130
aI2131
aI2132
aI1693
aI204
aI659
aI868
aI450
aa(lp199
I36
aI403
aI769
aI769
aI38
aI73
aI38
aI2133
aI38
aI117
aI38
aI2134
aI38
aI75
aI38
aI2135
aI44
aI1448
aI2136
aI2137
aI2138
aI2139
aI85
aI86
aI87
aI1052
aI1053
aI2140
aI398
aI443
aI456
aI902
aI117
aI599
aI2105
aI1264
aI2141
aI1710
aI2142
aI1455
aI2143
aI2144
aI104
aI96
aI97
aI569
aI2145
aI2146
aI101
aI102
aI1005
aI450
aa(lp200
I0
aI1
aI2
aI1860
aI37
aI2147
aI2148
aI0
aI7
aI8
aI9
aI10
aI11
aI12
aI13
aI14
aI15
aI16
aI1930
aI299
aI1971
aI2149
aI2150
aI1307
aI2147
aI314
aI2151
aI2152
aI1571
aI1572
aI2153
aa(lp201
I36
aI1095
aI38
aI683
aI38
aI2
aI38
aI683
aI44
aI1207
aI1098
aI297
aI298
aI159
aI1701
aI686
aI687
aI69
aI688
aI1099
aI408
aI103
aI2154
aI686
aI687
aI69
aI70
aI71
aa(lp202
I36
aI37
aI38
aI39
aI38
aI716
aI38
aI123
aI38
aI2155
aI38
aI2156
aI38
aI1242
aI44
aI45
aI46
aI47
aI48
aI719
aI686
aI720
aI721
aI55
aI56
aI722
aI134
aI135
aI723
aI2157
aI2158
aI2159
aI725
aI1252
aI1253
aI1254
aI52
aI1255
aI2160
aI450
aa(lp203
I36
aI254
aI38
aI2
aI38
aI107
aI38
aI2161
aI38
aI75
aI38
aI2162
aI44
aI406
aI369
aI370
aI459
aI460
aI408
aI103
aI461
aI186
aI107
aI108
aI147
aI462
aI473
aI302
aI465
aI466
aI467
aI468
aI469
aI324
aI325
aI146
aI407
aI96
aI97
aI67
aI1835
aI2163
aI2164
aI1953
aI2165
aI2166
aI2167
aI2168
aI1804
aI152
aa(lp204
I254
aI2
aI107
aI2169
aI666
aI3
aI2170
aI2171
aI369
aI370
aI281
aI855
aI14
aI15
aI628
aI275
aI107
aI276
aI670
aI980
aI2172
aI749
aI2173
aI1759
aI1496
aI677
aI678
aI2174
aI17
aI2175
aI2044
aI2176
aI2177
aI2178
aI2179
aI2180
aI2181
aI2182
aI2065
aI467
aI525
aI1552
aI2183
aI1340
aa(lp205
I36
aI37
aI38
aI2184
aI38
aI123
aI38
aI124
aI38
aI107
aI38
aI182
aI44
aI45
aI128
aI2185
aI2186
aI2187
aI2188
aI461
aI134
aI135
aI136
aI137
aI138
aI139
aI140
aI2189
aI186
aI107
aI108
aI218
aI190
aI191
aI127
aI192
aI107
aI144
aI120
aI121
aa(lp206
I1847
aI2190
aI1278
aI561
aI1422
aI2191
aI734
aI735
aI736
aI737
aI1851
aI370
aI281
aI282
aI283
aI1363
aI1364
aI2192
aI2193
aI175
aI381
aI382
aI1426
aI2194
aI1282
aI145
aI306
aI1496
aI2195
aI355
aI950
aI368
aI1022
aI1427
aI1428
aI12
aI2196
aI2197
aI672
aI673
aI1776
aI382
aI383
aI753
aI754
aI755
aI756
aI55
aI26
aI757
aI758
aI759
aI760
aI761
aI762
aI763
aI764
aI736
aI765
aI766
aI767
aa(lp207
I36
aI37
aI38
aI426
aI38
aI123
aI38
aI560
aI38
aI125
aI38
aI123
aI38
aI127
aI44
aI45
aI428
aI429
aI430
aI431
aI432
aI433
aI134
aI135
aI136
aI137
aI564
aI565
aI566
aI1999
aI142
aI143
aI144
aI145
aI146
aI147
aI134
aI135
aI434
aI150
aI127
aI151
aI152
aa(lp208
I0
aI1
aI2
aI3
aI2198
aI666
aI2199
aI0
aI7
aI8
aI9
aI10
aI11
aI12
aI13
aI14
aI15
aI16
aI17
aI2200
aI2201
aI2202
aI313
aI314
aI857
aI677
aI678
aI1504
aI375
aI2203
aI2204
aI2205
aI2206
aI556
aI2207
aa(lp209
I1341
aI257
aI107
aI1438
aI769
aI2208
aI244
aI246
aI1341
aI7
aI1346
aI384
aI257
aI385
aI291
aI275
aI107
aI276
aI1436
aI1437
aI1438
aI2209
aI2210
aI2211
aI1442
aI1443
aI301
aI302
aI303
aI304
aI305
aI306
aI309
aI310
aI311
aI312
aI280
aI313
aI1444
aa(lp210
I36
aI37
aI38
aI426
aI38
aI1206
aI38
aI43
aI44
aI45
aI428
aI429
aI430
aI431
aI432
aI993
aI1066
aI1208
aI1209
aI204
aI97
aI67
aI58
aI68
aI69
aI70
aI71
aa(lp211
I36
aI37
aI38
aI1471
aI38
aI131
aI38
aI3
aI38
aI1806
aI38
aI777
aI38
aI75
aI38
aI696
aI44
aI45
aI128
aI2212
aI576
aI918
aI131
aI132
aI456
aI88
aI1199
aI173
aI557
aI1492
aI1321
aI1672
aI1593
aI2213
aI520
aI521
aI522
aI207
aI690
aI691
aI524
aI525
aI131
aI132
aI460
aI96
aI97
aI98
aI1400
aI707
aI708
aI709
aI710
aI711
aI712
aI713
aI714
aI1466
aI1467
aa(lp212
I36
aI2214
aI38
aI43
aI44
aI2215
aI2216
aI1060
aI516
aI600
aI601
aI602
aI605
aI58
aI68
aI69
aI70
aI71
aa(lp213
I36
aI37
aI38
aI1152
aI38
aI1206
aI38
aI43
aI44
aI45
aI1155
aI1156
aI312
aI1157
aI1158
aI1159
aI219
aI644
aI1066
aI1208
aI1209
aI204
aI97
aI67
aI58
aI68
aI69
aI70
aI71
aa(lp214
I36
aI2217
aI44
aI1185
aI1183
aI2218
aI2219
aI973
aI2220
aI598
aI1001
aI152
aa(lp215
I36
aI2221
aI38
aI2
aI38
aI107
aI38
aI182
aI44
aI406
aI369
aI370
aI2222
aI2223
aI1134
aI408
aI103
aI461
aI186
aI107
aI108
aI218
aI190
aI191
aI127
aI192
aI107
aI144
aI120
aI121
aa(lp216
I254
aI2
aI107
aI2224
aI666
aI2225
aI369
aI370
aI281
aI855
aI14
aI15
aI628
aI275
aI107
aI276
aI670
aI671
aI2226
aI431
aI290
aI857
aI677
aI678
aI2050
aI1353
aI2227
aI1364
aI2228
aI2229
aa(lp217
I36
aI37
aI38
aI122
aI38
aI3
aI38
aI74
aI38
aI2230
aI38
aI107
aI38
aI2231
aI38
aI2232
aI38
aI75
aI38
aI76
aI44
aI45
aI128
aI129
aI130
aI131
aI132
aI456
aI88
aI89
aI90
aI91
aI92
aI93
aI94
aI2233
aI429
aI787
aI788
aI2234
aI200
aI186
aI107
aI108
aI865
aI2235
aI1331
aI1507
aI1334
aI94
aI1191
aI134
aI2236
aI2237
aI1282
aI219
aI1134
aI96
aI97
aI98
aI99
aI100
aI101
aI102
aI1005
aI450
aa(lp218
I36
aI180
aI38
aI73
aI38
aI451
aI38
aI3
aI38
aI683
aI38
aI2238
aI44
aI183
aI93
aI184
aI167
aI185
aI85
aI86
aI87
aI440
aI452
aI453
aI454
aI455
aI456
aI88
aI685
aI686
aI687
aI69
aI688
aI689
aI520
aI521
aI522
aI523
aI793
aI2239
aI2240
aI1970
aI131
aI526
aI152
aa(lp219
I36
aI37
aI38
aI39
aI38
aI40
aI38
aI41
aI38
aI1860
aI38
aI2241
aI44
aI45
aI46
aI47
aI48
aI49
aI50
aI51
aI52
aI53
aI54
aI55
aI56
aI57
aI58
aI41
aI59
aI644
aI918
aI159
aI2028
aI2242
aI1183
aI2218
aI2219
aI973
aI2243
aI904
aI152
aa(lp220
I36
aI37
aI38
aI579
aI1117
aI38
aI122
aI38
aI123
aI38
aI581
aI38
aI2244
aI44
aI45
aI1121
aI584
aI1122
aI1123
aI1117
aI1124
aI189
aI129
aI130
aI131
aI132
aI133
aI134
aI135
aI588
aI589
aI590
aI591
aI1223
aI2245
aI2246
aI1107
aI516
aI2183
aI120
aI121
aa(lp221
I36
aI2247
aI38
aI73
aI38
aI3
aI38
aI74
aI44
aI2248
aI2249
aI2250
aI2251
aI84
aI85
aI86
aI87
aI88
aI89
aI90
aI91
aI92
aI93
aI457
aI425
aa(lp222
I254
aI618
aI2
aI527
aI2252
aI369
aI370
aI281
aI337
aI623
aI624
aI625
aI626
aI627
aI14
aI15
aI1653
aI1654
aI1655
aI855
aI347
aI659
aI615
aI2253
aI2254
aI1032
aI2255
aa(lp223
I2256
aI2257
aI1278
aI906
aI2258
aI2259
aI2260
aI734
aI1966
aI2258
aI737
aI2261
aI1427
aI1428
aI12
aI2262
aI1348
aI663
aI1575
aI2263
aI721
aI659
aI1089
aI1426
aI2194
aI1282
aI145
aI306
aI1580
aI1621
aI281
aI367
aI951
aI2258
aI765
aI2264
aI811
aI2265
aI2266
aI2267
aI2268
aI2269
aI2270
aI525
aI2271
aI1062
aI1759
aI1554
aI753
aI754
aI755
aI756
aI55
aI26
aI2272
aI1557
aI1558
aI760
aI761
aI762
aI2273
aI951
aI2258
aI765
aI766
aI767
aa(lp224
I0
aI1
aI2
aI181
aI2274
aI0
aI7
aI8
aI9
aI10
aI11
aI12
aI13
aI14
aI15
aI628
aI275
aI107
aI187
aI366
aI855
aI2275
aI2276
aI2277
aI1746
aI213
aI2278
aa(lp225
I36
aI37
aI38
aI39
aI38
aI40
aI38
aI41
aI38
aI2279
aI44
aI45
aI46
aI47
aI48
aI49
aI50
aI51
aI52
aI53
aI54
aI55
aI56
aI57
aI58
aI41
aI59
aI1325
aI499
aI2280
aI2281
aI2282
aI2283
aI1381
aI119
aI295
aI1182
aI450
aa(lp226
I36
aI37
aI38
aI2284
aI38
aI123
aI38
aI124
aI38
aI437
aI38
aI107
aI38
aI182
aI44
aI45
aI2285
aI2286
aI2287
aI2288
aI2289
aI2072
aI134
aI135
aI136
aI137
aI138
aI139
aI140
aI576
aI440
aI441
aI442
aI398
aI443
aI133
aI186
aI107
aI108
aI218
aI190
aI191
aI127
aI192
aI107
aI144
aI120
aI121
aa(lp227
I36
aI254
aI38
aI2
aI38
aI107
aI38
aI2290
aI44
aI406
aI369
aI370
aI459
aI460
aI408
aI103
aI461
aI186
aI107
aI108
aI218
aI190
aI191
aI788
aI117
aI2291
aI107
aI144
aI120
aI121
aa(lp228
I36
aI180
aI38
aI73
aI38
aI437
aI38
aI194
aI38
aI2292
aI44
aI183
aI93
aI184
aI167
aI185
aI85
aI86
aI87
aI440
aI441
aI442
aI398
aI443
aI133
aI201
aI202
aI203
aI204
aI97
aI205
aI2293
aI2294
aI112
aI209
aI210
aI2295
aI868
aI450
aa(lp229
I36
aI37
aI38
aI39
aI38
aI716
aI38
aI123
aI38
aI2296
aI38
aI2297
aI38
aI154
aI38
aI2298
aI38
aI2299
aI38
aI3
aI38
aI683
aI38
aI74
aI38
aI2230
aI38
aI2300
aI44
aI45
aI46
aI47
aI48
aI719
aI686
aI720
aI721
aI55
aI56
aI722
aI134
aI135
aI1914
aI2301
aI1296
aI1631
aI1632
aI2302
aI2303
aI2304
aI2305
aI2297
aI159
aI160
aI161
aI154
aI162
aI2003
aI520
aI1040
aI1041
aI2306
aI2307
aI85
aI806
aI447
aI83
aI993
aI88
aI685
aI686
aI687
aI69
aI688
aI2308
aI90
aI91
aI92
aI93
aI94
aI2233
aI429
aI787
aI788
aI2234
aI2309
aI2310
aI2300
aI1804
aI152
aa(lp230
I36
aI125
aI38
aI153
aI38
aI37
aI38
aI717
aI38
aI3
aI38
aI2311
aI44
aI406
aI143
aI144
aI145
aI146
aI1294
aI164
aI153
aI159
aI1399
aI999
aI1802
aI724
aI717
aI725
aI1793
aI88
aI89
aI589
aI2312
aI1130
aI1131
aI2313
aI2314
aI1164
aI592
aI471
aa(lp231
I36
aI37
aI38
aI426
aI38
aI1376
aI38
aI124
aI38
aI125
aI38
aI123
aI38
aI127
aI44
aI45
aI428
aI429
aI430
aI431
aI432
aI2315
aI867
aI455
aI2316
aI137
aI138
aI139
aI140
aI141
aI142
aI143
aI144
aI145
aI146
aI147
aI134
aI135
aI434
aI150
aI127
aI151
aI152
aa(lp232
I0
aI2317
aI2
aI3
aI2318
aI2319
aI972
aI973
aI0
aI7
aI8
aI9
aI2317
aI2320
aI13
aI14
aI15
aI16
aI17
aI2321
aI2322
aI2323
aI2324
aI347
aI1061
aI1672
aI12
aI2325
aI888
aI972
aI978
aI979
aI980
aI973
aI981
aa(lp233
I36
aI254
aI475
aI38
aI107
aI38
aI182
aI38
aI2326
aI38
aI75
aI38
aI696
aI44
aI406
aI369
aI370
aI477
aI478
aI479
aI461
aI186
aI107
aI108
aI218
aI190
aI191
aI127
aI192
aI107
aI144
aI219
aI200
aI134
aI480
aI2327
aI1797
aI459
aI460
aI96
aI97
aI98
aI1400
aI707
aI708
aI709
aI710
aI711
aI712
aI713
aI714
aI1466
aI1467
aa(lp234
I36
aI72
aI38
aI73
aI38
aI3
aI38
aI74
aI38
aI75
aI38
aI907
aI38
aI2328
aI44
aI80
aI81
aI82
aI83
aI84
aI85
aI86
aI87
aI88
aI89
aI90
aI91
aI92
aI93
aI94
aI95
aI96
aI97
aI943
aI50
aI907
aI916
aI917
aI918
aI1552
aI2329
aI2330
aI1874
aI923
aI731
aI450
aa(lp235
I36
aI37
aI38
aI39
aI38
aI40
aI38
aI41
aI38
aI2331
aI38
aI43
aI44
aI45
aI46
aI47
aI48
aI49
aI50
aI51
aI52
aI53
aI54
aI55
aI56
aI57
aI58
aI41
aI59
aI644
aI47
aI1666
aI747
aI2332
aI2333
aI1315
aI298
aI159
aI67
aI58
aI68
aI69
aI70
aI71
aa(lp236
I664
aI2
aI107
aI2334
aI666
aI2335
aI835
aI664
aI668
aI669
aI14
aI15
aI628
aI275
aI107
aI276
aI670
aI980
aI312
aI521
aI601
aI2336
aI1094
aI674
aI675
aI676
aI371
aI677
aI678
aI679
aI1890
aI1115
aI2337
aI2338
aI130
aI2339
aI958
aa(lp237
I36
aI37
aI38
aI426
aI38
aI43
aI38
aI43
aI44
aI45
aI428
aI429
aI430
aI431
aI432
aI1589
aI58
aI68
aI69
aI688
aI1589
aI58
aI68
aI69
aI70
aI71
aa(lp238
I0
aI1
aI1532
aI3
aI2278
aI2340
aI2341
aI0
aI7
aI8
aI9
aI10
aI11
aI12
aI2342
aI1541
aI1542
aI1543
aI382
aI16
aI17
aI2343
aI632
aI1553
aI627
aI2275
aI2344
aI2147
aI314
aI2345
aI283
aI1232
aI1296
aI1774
aa(lp239
I36
aI37
aI38
aI122
aI38
aI123
aI38
aI2247
aI38
aI3
aI38
aI194
aI38
aI195
aI44
aI45
aI128
aI129
aI130
aI131
aI132
aI133
aI134
aI135
aI1840
aI2346
aI2249
aI2250
aI2251
aI993
aI88
aI1114
aI201
aI202
aI203
aI204
aI97
aI205
aI206
aI207
aI208
aI112
aI209
aI210
aI211
aI212
aa(lp240
I36
aI3
aI38
aI2347
aI44
aI2348
aI512
aI513
aI514
aI515
aI516
aI600
aI601
aI2253
aI2349
aI213
aI603
aI471
aa(lp241
I36
aI664
aI38
aI2
aI38
aI156
aI38
aI2350
aI38
aI489
aI44
aI406
aI664
aI1141
aI1489
aI408
aI103
aI1490
aI161
aI169
aI170
aI171
aI2351
aI2352
aI2353
aI522
aI1297
aI508
aI173
aI174
aI175
aI176
aI447
aI509
aI71
aa(lp242
I36
aI2
aI38
aI527
aI38
aI716
aI38
aI123
aI38
aI2354
aI44
aI960
aI103
aI104
aI528
aI529
aI961
aI686
aI720
aI721
aI55
aI56
aI722
aI134
aI135
aI962
aI963
aI203
aI204
aI105
aI526
aI152
aa(lp243
I36
aI3
aI38
aI2355
aI38
aI2356
aI38
aI1154
aI44
aI2348
aI2357
aI1103
aI2355
aI831
aI2358
aI652
aI653
aI654
aI984
aI2359
aI2360
aI1501
aI55
aI56
aI2361
aI1169
aI1170
aI675
aI813
aI119
aI120
aI121
aa(lp244
I36
aI180
aI38
aI73
aI38
aI107
aI38
aI2362
aI44
aI183
aI93
aI184
aI167
aI185
aI85
aI86
aI147
aI186
aI107
aI108
aI218
aI129
aI2363
aI2364
aI2021
aI107
aI144
aI120
aI121
aa(lp245
I36
aI929
aI38
aI40
aI38
aI41
aI38
aI3
aI38
aI1806
aI38
aI777
aI38
aI2365
aI38
aI908
aI44
aI2366
aI929
aI48
aI49
aI50
aI51
aI52
aI53
aI54
aI55
aI56
aI57
aI58
aI41
aI59
aI644
aI88
aI1199
aI173
aI557
aI1492
aI1321
aI1672
aI1593
aI2213
aI520
aI521
aI522
aI207
aI690
aI691
aI524
aI525
aI131
aI132
aI460
aI96
aI2367
aI1748
aI907
aI916
aI917
aI918
aI919
aI920
aI921
aI922
aI923
aI731
aI450
aa(lp246
I36
aI2368
aI38
aI37
aI38
aI426
aI38
aI123
aI38
aI124
aI38
aI2369
aI38
aI123
aI38
aI127
aI38
aI1995
aI44
aI2370
aI1354
aI1879
aI2371
aI2372
aI2373
aI1127
aI999
aI428
aI429
aI430
aI431
aI432
aI433
aI134
aI135
aI136
aI137
aI138
aI139
aI140
aI141
aI142
aI2374
aI1953
aI146
aI147
aI134
aI135
aI434
aI150
aI127
aI459
aI508
aI992
aI1491
aI1996
aI1883
aI238
aI152
aa(lp247
I36
aI40
aI38
aI41
aI38
aI3
aI38
aI2375
aI38
aI777
aI44
aI2376
aI51
aI52
aI53
aI54
aI55
aI56
aI57
aI58
aI41
aI59
aI644
aI88
aI512
aI513
aI2377
aI2378
aI2379
aI381
aI601
aI602
aI941
aI520
aI521
aI522
aI207
aI690
aI691
aI524
aI525
aI131
aI526
aI152
aa(lp248
I36
aI2380
aI38
aI1806
aI38
aI43
aI44
aI2381
aI2338
aI130
aI131
aI132
aI508
aI173
aI557
aI1492
aI1321
aI1672
aI1593
aI1594
aI58
aI68
aI69
aI70
aI71
aa(lp249
I36
aI593
aI38
aI1860
aI38
aI40
aI38
aI41
aI38
aI1860
aI38
aI1218
aI38
aI2382
aI44
aI2383
aI2384
aI918
aI159
aI943
aI50
aI51
aI52
aI53
aI54
aI55
aI56
aI57
aI58
aI41
aI59
aI644
aI918
aI159
aI2028
aI914
aI1218
aI2385
aI961
aI2064
aI29
aI166
aI419
aI2065
aI543
aI549
aI485
aa(lp250
I36
aI254
aI38
aI2
aI38
aI107
aI38
aI2386
aI44
aI406
aI369
aI370
aI459
aI460
aI408
aI103
aI461
aI186
aI107
aI108
aI147
aI462
aI473
aI302
aI465
aI474
aI788
aI117
aI2387
aI324
aI325
aI470
aI471
aa(lp251
I36
aI37
aI38
aI122
aI38
aI123
aI38
aI127
aI38
aI1098
aI38
aI43
aI44
aI45
aI128
aI129
aI130
aI131
aI132
aI133
aI134
aI135
aI434
aI150
aI127
aI459
aI456
aI1066
aI1098
aI2388
aI1009
aI58
aI68
aI69
aI70
aI71
aa(lp252
I36
aI37
aI38
aI122
aI38
aI123
aI38
aI2389
aI38
aI437
aI38
aI43
aI44
aI45
aI128
aI129
aI130
aI131
aI132
aI133
aI134
aI135
aI901
aI2390
aI2389
aI2391
aI917
aI440
aI441
aI442
aI398
aI443
aI508
aI58
aI68
aI69
aI70
aI71
aa(lp253
I36
aI37
aI38
aI122
aI38
aI123
aI38
aI72
aI38
aI3
aI38
aI2392
aI38
aI405
aI44
aI45
aI128
aI129
aI130
aI131
aI132
aI133
aI134
aI135
aI1840
aI992
aI81
aI82
aI83
aI993
aI88
aI909
aI652
aI653
aI654
aI2393
aI986
aI55
aI56
aI987
aI422
aI423
aI166
aI424
aI425
aa(lp254
I36
aI2394
aI38
aI73
aI38
aI2395
aI38
aI2396
aI44
aI2397
aI2398
aI1164
aI1223
aI421
aI85
aI86
aI147
aI201
aI202
aI2399
aI591
aI1190
aI94
aI95
aI96
aI1761
aI2400
aI2401
aI2402
aI2403
aI112
aI209
aI210
aI211
aI212
aa(lp255
I36
aI996
aI38
aI37
aI38
aI1011
aI769
aI38
aI535
aI38
aI536
aI44
aI998
aI996
aI518
aI104
aI999
aI1009
aI1010
aI1011
aI2404
aI2405
aI2406
aI541
aI542
aI543
aI544
aI545
aI546
aI515
aI55
aI547
aI548
aI549
aI485
aa(lp256
I36
aI37
aI38
aI39
aI38
aI716
aI38
aI123
aI38
aI2407
aI38
aI3
aI38
aI2408
aI44
aI45
aI46
aI47
aI48
aI719
aI686
aI720
aI721
aI55
aI56
aI722
aI134
aI135
aI2409
aI2410
aI2407
aI791
aI1793
aI88
aI2357
aI1253
aI1254
aI52
aI2411
aI2412
aa(lp257
I2413
aI2414
aI2415
aI2416
aI123
aI2417
aI75
aI2418
aI2419
aI2420
aI2414
aI633
aI2421
aI2422
aI2423
aI2424
aI2425
aI2426
aI19
aI2427
aI2428
aI2429
aI1555
aI338
aI339
aI2430
aI1505
aI2431
aI1164
aI2432
aI627
aI347
aI75
aa(lp258
I1531
aI2
aI2433
aI2434
aI1531
aI1539
aI2435
aI14
aI15
aI402
aI2436
aI675
aI491
aI552
aI2437
aI2438
aI2439
aI34
aI310
aI880
aI2440
aI2295
aI1915
aI207
aI1970
aI1552
aI2441
aI2254
aI1766
aI2442
aa(lp259
I664
aI2443
aI2444
aI835
aI664
aI668
aI2445
aI2446
aI2447
aI2228
aI271
aI2448
aI290
aI2151
aI2152
aI2083
aI2449
aI1358
aI1359
aI2450
aI2451
aI2452
aI2453
aI2454
aa(lp260
I36
aI37
aI38
aI39
aI38
aI40
aI38
aI2455
aI38
aI43
aI44
aI45
aI46
aI47
aI48
aI49
aI50
aI51
aI52
aI53
aI54
aI55
aI56
aI57
aI58
aI41
aI636
aI2456
aI62
aI781
aI280
aI782
aI159
aI67
aI58
aI68
aI69
aI70
aI71
aa(lp261
I0
aI2457
aI2
aI3
aI2458
aI5
aI2459
aI562
aI0
aI7
aI8
aI2460
aI2461
aI2462
aI2320
aI13
aI14
aI15
aI16
aI17
aI18
aI19
aI20
aI2463
aI23
aI24
aI25
aI26
aI27
aI28
aI29
aI30
aI31
aI32
aI33
aI2464
aI2201
aI2202
aI788
aI765
aI2465
aI2466
aa(lp262
I0
aI1
aI2
aI213
aI2467
aI666
aI695
aI0
aI7
aI8
aI9
aI10
aI11
aI12
aI13
aI14
aI15
aI1853
aI2195
aI213
aI1553
aI670
aI671
aI2468
aI2469
aI2173
aI1759
aI1496
aI677
aI678
aI2470
aI701
aI702
aI703
aI704
aI2471
aa(lp263
I664
aI2472
aI834
aI664
aI668
aI2445
aI2446
aI2473
aI1710
aI2448
aI290
aI845
aI846
aI847
aI848
aI849
aI850
aI1825
aa(lp264
I36
aI37
aI38
aI39
aI38
aI2474
aI38
aI3
aI38
aI595
aI38
aI213
aI44
aI45
aI46
aI47
aI48
aI49
aI50
aI51
aI52
aI53
aI54
aI55
aI2475
aI2476
aI41
aI59
aI644
aI88
aI512
aI513
aI514
aI515
aI516
aI600
aI601
aI602
aI223
aI221
aI213
aI603
aI471
aa(lp265
I36
aI153
aI38
aI154
aI38
aI180
aI38
aI73
aI38
aI2477
aI38
aI182
aI44
aI158
aI153
aI159
aI160
aI161
aI154
aI162
aI1149
aI462
aI93
aI184
aI167
aI185
aI85
aI86
aI147
aI462
aI2478
aI2166
aI108
aI218
aI190
aI191
aI127
aI192
aI107
aI144
aI120
aI121
aa(lp266
I36
aI37
aI38
aI122
aI38
aI123
aI38
aI124
aI38
aI437
aI38
aI2479
aI38
aI182
aI44
aI45
aI128
aI129
aI130
aI131
aI132
aI133
aI134
aI135
aI136
aI137
aI138
aI139
aI140
aI576
aI440
aI441
aI442
aI398
aI443
aI133
aI462
aI2480
aI218
aI190
aI191
aI127
aI192
aI107
aI144
aI120
aI121
aa(lp267
I0
aI2481
aI2
aI3
aI972
aI1183
aI0
aI7
aI8
aI2152
aI2083
aI1428
aI12
aI13
aI14
aI15
aI16
aI17
aI977
aI888
aI972
aI978
aI2482
aI1581
aI1183
aI2483
aa(lp268
I36
aI2484
aI38
aI43
aI44
aI490
aI82
aI2485
aI2486
aI204
aI97
aI67
aI58
aI68
aI69
aI70
aI71
aa(lp269
I36
aI37
aI38
aI1007
aI38
aI2484
aI38
aI43
aI44
aI45
aI1731
aI1014
aI1015
aI1016
aI1017
aI407
aI96
aI82
aI2485
aI2486
aI204
aI97
aI67
aI58
aI68
aI69
aI70
aI71
aa(lp270
I36
aI37
aI38
aI39
aI38
aI40
aI38
aI41
aI38
aI3
aI38
aI595
aI38
aI2487
aI44
aI45
aI46
aI47
aI48
aI49
aI50
aI51
aI52
aI53
aI54
aI55
aI56
aI57
aI58
aI41
aI59
aI644
aI88
aI512
aI513
aI514
aI515
aI516
aI600
aI601
aI602
aI1225
aI531
aI2487
aI2488
aI471
aa(lp271
I1341
aI257
aI2489
aI2490
aI2491
aI437
aI1245
aI1341
aI7
aI1346
aI384
aI257
aI385
aI2492
aI2493
aI2494
aI2495
aI949
aI2496
aI1921
aI2497
aI418
aI1318
aI2498
aI929
aI2463
aI2499
aI2500
aI375
aI1712
aI788
aI2501
aI2502
aI2503
aI349
aI2504
aI441
aI442
aI398
aI399
aI1967
aI9
aI1265
aI1266
aI1267
aI2505
aa(lp272
I36
aI180
aI38
aI73
aI38
aI125
aI38
aI593
aI38
aI153
aI38
aI72
aI38
aI3
aI38
aI2506
aI38
aI195
aI44
aI183
aI93
aI184
aI167
aI185
aI85
aI86
aI218
aI142
aI143
aI144
aI145
aI146
aI989
aI990
aI991
aI164
aI153
aI159
aI67
aI992
aI81
aI82
aI83
aI993
aI88
aI1114
aI201
aI2507
aI2508
aI298
aI159
aI205
aI206
aI207
aI208
aI112
aI209
aI210
aI211
aI212
aa(lp273
I36
aI40
aI38
aI41
aI38
aI514
aI38
aI933
aI38
aI43
aI44
aI2376
aI51
aI52
aI53
aI54
aI55
aI56
aI57
aI58
aI41
aI59
aI1325
aI513
aI514
aI940
aI428
aI429
aI600
aI601
aI602
aI605
aI58
aI68
aI69
aI70
aI71
aa(lp274
I1341
aI257
aI2509
aI2510
aI1344
aI2511
aI1341
aI7
aI1346
aI384
aI257
aI385
aI2512
aI701
aI986
aI2513
aI663
aI2240
aI2514
aI699
aI952
aI310
aI856
aI466
aI145
aI280
aI313
aI314
aI1355
aI1356
aI1357
aI1358
aI1359
aI1360
aI1361
aI2515
aI2516
aI2517
aI2518
aI2437
aI2519
aI2520
aa(lp275
I36
aI180
aI38
aI73
aI38
aI437
aI38
aI1674
aI38
aI777
aI44
aI183
aI93
aI184
aI167
aI185
aI85
aI86
aI87
aI440
aI441
aI442
aI398
aI443
aI456
aI1322
aI1675
aI687
aI69
aI688
aI689
aI520
aI521
aI522
aI207
aI690
aI691
aI524
aI525
aI131
aI526
aI152
aa(lp276
I36
aI2521
aI38
aI73
aI38
aI123
aI38
aI438
aI38
aI489
aI44
aI490
aI105
aI2522
aI480
aI554
aI555
aI556
aI497
aI421
aI85
aI86
aI147
aI134
aI135
aI498
aI161
aI154
aI445
aI446
aI236
aI173
aI174
aI175
aI176
aI447
aI509
aI71
aa(lp277
I36
aI37
aI38
aI1152
aI38
aI2523
aI38
aI43
aI44
aI45
aI1155
aI1156
aI312
aI1157
aI1158
aI1159
aI219
aI644
aI47
aI1666
aI747
aI2332
aI2524
aI153
aI159
aI67
aI58
aI68
aI69
aI70
aI71
aa(lp278
I36
aI1027
aI38
aI154
aI38
aI1029
aI38
aI3
aI38
aI1214
aI38
aI777
aI38
aI75
aI38
aI696
aI44
aI1030
aI1031
aI1032
aI1033
aI1034
aI1035
aI161
aI154
aI162
aI2003
aI520
aI1040
aI1041
aI1042
aI1043
aI1044
aI806
aI447
aI83
aI993
aI88
aI685
aI686
aI687
aI606
aI1219
aI1529
aI520
aI521
aI522
aI207
aI690
aI691
aI524
aI525
aI131
aI132
aI460
aI96
aI97
aI98
aI1400
aI707
aI708
aI709
aI710
aI711
aI712
aI713
aI714
aI1466
aI1467
aa(lp279
I36
aI798
aI38
aI2525
aI38
aI2526
aI38
aI2527
aI38
aI934
aI38
aI2528
aI44
aI2529
aI798
aI146
aI147
aI186
aI107
aI144
aI145
aI146
aI87
aI918
aI2526
aI2530
aI2531
aI1400
aI702
aI2532
aI2533
aI832
aI520
aI521
aI522
aI207
aI690
aI691
aI524
aI525
aI131
aI796
aI942
aI104
aI96
aI2534
aI2535
aI100
aI101
aI102
aI1005
aI450
aa(lp280
I36
aI664
aI38
aI2
aI38
aI438
aI38
aI2536
aI44
aI406
aI664
aI1141
aI1489
aI408
aI103
aI1490
aI161
aI154
aI445
aI446
aI825
aI1205
aI175
aI176
aI447
aI509
aI71
aa(lp281
I2537
aI257
aI735
aI736
aI737
aI246
aI2537
aI2538
aI2342
aI384
aI257
aI385
aI763
aI758
aI759
aI760
aI761
aI762
aI763
aI764
aI736
aI765
aI766
aI2539
aI2540
aI310
aI311
aI312
aI280
aI313
aI1444
aa(lp282
I664
aI2541
aI2444
aI664
aI668
aI2445
aI1503
aI1794
aI1364
aI2542
aI1651
aI290
aI2151
aI2152
aI2083
aI2449
aI1358
aI1359
aI2450
aI2451
aI2452
aI2543
aa(lp283
I36
aI154
aI38
aI426
aI38
aI123
aI38
aI124
aI38
aI1278
aI38
aI123
aI38
aI127
aI44
aI2544
aI154
aI162
aI2545
aI429
aI430
aI431
aI432
aI433
aI134
aI135
aI136
aI137
aI138
aI139
aI140
aI141
aI190
aI1282
aI145
aI146
aI147
aI134
aI135
aI434
aI150
aI127
aI151
aI152
aa(lp284
I36
aI37
aI38
aI122
aI38
aI123
aI38
aI202
aI38
aI1190
aI44
aI45
aI128
aI129
aI130
aI131
aI132
aI133
aI134
aI135
aI567
aI201
aI202
aI2546
aI2547
aI541
aI1190
aI457
aI425
aa(lp285
I0
aI1
aI1532
aI2548
aI2341
aI0
aI7
aI8
aI9
aI10
aI11
aI12
aI2342
aI1541
aI1542
aI1543
aI382
aI1853
aI1931
aI445
aI325
aI2549
aI2550
aI2551
aI191
aI788
aI765
aI814
aI283
aI1232
aI1296
aI1774
aa(lp286
I36
aI180
aI38
aI73
aI38
aI145
aI38
aI123
aI38
aI643
aI44
aI183
aI93
aI184
aI167
aI185
aI85
aI86
aI865
aI2552
aI145
aI146
aI147
aI134
aI135
aI651
aI652
aI653
aI654
aI655
aI656
aa(lp287
I36
aI72
aI38
aI2553
aI38
aI1685
aI38
aI3
aI38
aI777
aI44
aI80
aI81
aI82
aI83
aI84
aI2554
aI2555
aI1692
aI87
aI88
aI832
aI520
aI521
aI522
aI207
aI690
aI691
aI524
aI525
aI131
aI526
aI152
aa(lp288
I36
aI2556
aI38
aI3
aI38
aI683
aI38
aI117
aI38
aI2557
aI44
aI1448
aI1040
aI1041
aI284
aI1430
aI1449
aI1450
aI2558
aI2559
aI2560
aI88
aI685
aI686
aI687
aI69
aI688
aI993
aI902
aI117
aI599
aI786
aI1452
aI1453
aI2561
aI2562
aI2563
aI2564
aI2565
aa(lp289
I36
aI125
aI38
aI2
aI38
aI107
aI38
aI2566
aI38
aI2567
aI38
aI75
aI38
aI696
aI44
aI406
aI143
aI144
aI145
aI146
aI407
aI408
aI103
aI461
aI186
aI107
aI108
aI87
aI2568
aI2569
aI2570
aI94
aI2571
aI206
aI1631
aI1576
aI781
aI146
aI407
aI96
aI97
aI98
aI1400
aI707
aI708
aI709
aI710
aI711
aI712
aI713
aI714
aI1466
aI1467
aa(lp290
I36
aI37
aI38
aI122
aI38
aI123
aI38
aI2572
aI38
aI437
aI38
aI785
aI44
aI45
aI128
aI129
aI130
aI131
aI132
aI133
aI134
aI135
aI1489
aI96
aI2573
aI2574
aI2575
aI2576
aI325
aI146
aI87
aI440
aI441
aI442
aI398
aI443
aI2577
aI520
aI521
aI522
aI523
aI793
aI794
aI795
aI525
aI131
aI796
aI797
aI450
aa(lp291
I36
aI3
aI38
aI2578
aI44
aI2348
aI2058
aI867
aI92
aI93
aI457
aI425
aa(lp292
I36
aI37
aI38
aI579
aI1117
aI38
aI122
aI38
aI123
aI38
aI581
aI38
aI2331
aI38
aI43
aI38
aI2579
aI44
aI45
aI1121
aI584
aI1122
aI1123
aI1117
aI1124
aI189
aI129
aI130
aI131
aI132
aI133
aI134
aI135
aI588
aI589
aI590
aI591
aI1223
aI87
aI47
aI1666
aI747
aI2332
aI2333
aI1315
aI298
aI159
aI67
aI58
aI68
aI69
aI688
aI993
aI918
aI2526
aI2580
aI2581
aI968
aI781
aI470
aI471
aa(lp293
I36
aI37
aI38
aI2582
aI38
aI426
aI38
aI43
aI44
aI45
aI1121
aI584
aI2583
aI2584
aI2585
aI2586
aI429
aI430
aI431
aI432
aI1589
aI58
aI68
aI69
aI70
aI71
aa(lp294
I36
aI37
aI38
aI122
aI38
aI123
aI38
aI894
aI38
aI123
aI38
aI2587
aI38
aI664
aI38
aI2588
aI38
aI729
aI44
aI45
aI128
aI129
aI130
aI131
aI132
aI133
aI134
aI135
aI567
aI896
aI897
aI898
aI899
aI900
aI134
aI135
aI651
aI1526
aI1527
aI1528
aI2589
aI2349
aI213
aI222
aI218
aI142
aI664
aI1141
aI136
aI137
aI138
aI139
aI1598
aI2590
aI2591
aI2592
aI50
aI729
aI904
aI152
aa(lp295
I36
aI2593
aI38
aI73
aI38
aI437
aI38
aI438
aI38
aI439
aI44
aI2594
aI1828
aI2595
aI94
aI185
aI85
aI86
aI87
aI440
aI441
aI442
aI398
aI443
aI444
aI161
aI154
aI445
aI446
aI236
aI173
aI174
aI175
aI176
aI447
aI448
aI449
aI450
aa(lp296
I239
aI579
aI2596
aI2597
aI107
aI2598
aI666
aI107
aI2599
aI2600
aI261
aI262
aI263
aI2601
aI1541
aI1636
aI1556
aI2194
aI2602
aI1362
aI2603
aI2604
aI2605
aI2606
aI2607
aI468
aI1878
aI1643
aI1555
aI275
aI107
aI276
aI326
aI2608
aI2609
aI1771
aI1728
aI1891
aI371
aI677
aI678
aI679
aI275
aI107
aI276
aI2077
aI2610
aI2611
aI2612
aI972
aI2177
aI321
aI2613
aI111
aI1878
aI1643
aI1561
aI2614
aI2615
aI2616
aI1062
aI2617
aI2618
aI2619
aI209
aI210
aI561
aa(lp297
I36
aI37
aI38
aI2620
aI38
aI595
aI38
aI43
aI44
aI45
aI128
aI129
aI1703
aI2621
aI2585
aI2622
aI513
aI514
aI515
aI516
aI600
aI601
aI602
aI605
aI58
aI68
aI69
aI70
aI71
aa(lp298
I36
aI180
aI38
aI73
aI38
aI437
aI38
aI2623
aI44
aI183
aI93
aI184
aI167
aI185
aI85
aI86
aI87
aI440
aI441
aI442
aI398
aI443
aI870
aI90
aI91
aI1827
aI1828
aI923
aI731
aI450
aa(lp299
I664
aI2624
aI834
aI664
aI668
aI669
aI2625
aI2626
aI2627
aI2628
aI2629
aI2630
aI2631
aI675
aI813
aI1885
aI290
aI845
aI846
aI847
aI848
aI849
aI850
aI1825
aa(lp300
I36
aI37
aI38
aI39
aI38
aI2632
aI38
aI2633
aI38
aI2634
aI44
aI45
aI46
aI47
aI48
aI2635
aI2636
aI2637
aI2228
aI83
aI1589
aI58
aI2638
aI588
aI2639
aI1857
aI25
aI547
aI548
aI549
aI485
aa(lp301
I125
aI945
aI834
aI2640
aI835
aI143
aI144
aI145
aI306
aI1899
aI951
aI945
aI699
aI952
aI846
aI847
aI848
aI849
aI850
aI765
aI953
aI954
aI2641
aI2642
aI2643
aI852
aa(lp302
I36
aI0
aI38
aI153
aI38
aI37
aI38
aI2644
aI38
aI249
aI38
aI2645
aI38
aI270
aI38
aI2646
aI38
aI123
aI38
aI107
aI38
aI2647
aI44
aI771
aI0
aI140
aI2648
aI164
aI153
aI159
aI1399
aI999
aI1288
aI1778
aI2644
aI188
aI508
aI173
aI328
aI329
aI2069
aI930
aI58
aI2649
aI2650
aI2651
aI521
aI518
aI917
aI918
aI270
aI83
aI84
aI410
aI968
aI781
aI2652
aI2653
aI2654
aI2655
aI916
aI461
aI134
aI135
aI567
aI186
aI107
aI108
aI87
aI2242
aI1183
aI2218
aI2656
aI881
aI598
aI1001
aI152
aa(lp303
I36
aI37
aI38
aI39
aI38
aI40
aI38
aI41
aI38
aI2657
aI38
aI43
aI44
aI45
aI46
aI47
aI48
aI49
aI50
aI51
aI52
aI53
aI54
aI55
aI56
aI57
aI58
aI41
aI59
aI644
aI914
aI112
aI2658
aI1896
aI2498
aI298
aI159
aI67
aI58
aI68
aI69
aI70
aI71
aa(lp304
I36
aI37
aI38
aI122
aI38
aI123
aI38
aI2395
aI38
aI123
aI38
aI76
aI38
aI2659
aI38
aI2660
aI44
aI45
aI128
aI129
aI130
aI131
aI132
aI133
aI134
aI135
aI567
aI201
aI202
aI2399
aI591
aI1190
aI94
aI1191
aI134
aI135
aI1192
aI99
aI100
aI101
aI102
aI103
aI461
aI186
aI874
aI260
aI103
aI2661
aI190
aI2662
aI317
aI2663
aI2664
aI2665
aI2666
aI212
aa(lp305
I36
aI1664
aI38
aI43
aI38
aI2
aI38
aI2667
aI38
aI2633
aI38
aI2668
aI44
aI2669
aI1666
aI747
aI748
aI749
aI750
aI153
aI159
aI67
aI58
aI68
aI69
aI688
aI1099
aI408
aI103
aI2670
aI2671
aI2672
aI2673
aI2674
aI1812
aI58
aI2638
aI962
aI2675
aI2668
aI2676
aI471
aa(lp306
I36
aI37
aI38
aI122
aI38
aI123
aI38
aI2677
aI38
aI437
aI38
aI107
aI38
aI182
aI44
aI45
aI128
aI129
aI130
aI131
aI132
aI133
aI134
aI135
aI1489
aI96
aI2573
aI286
aI2678
aI2679
aI2680
aI219
aI644
aI440
aI441
aI442
aI398
aI443
aI133
aI186
aI107
aI108
aI218
aI190
aI191
aI127
aI192
aI107
aI144
aI120
aI121
aa(lp307
I36
aI1698
aI38
aI37
aI38
aI39
aI38
aI40
aI38
aI41
aI38
aI2681
aI44
aI1699
aI1700
aI1489
aI999
aI46
aI47
aI48
aI49
aI50
aI51
aI52
aI53
aI54
aI55
aI56
aI57
aI58
aI41
aI59
aI2031
aI652
aI653
aI654
aI2682
aI2683
aI830
aI2684
aI876
aa(lp308
I36
aI180
aI38
aI73
aI38
aI2369
aI38
aI123
aI38
aI643
aI44
aI183
aI93
aI184
aI167
aI185
aI85
aI86
aI218
aI142
aI2374
aI1953
aI146
aI147
aI134
aI135
aI651
aI652
aI653
aI654
aI655
aI656
aa(lp309
I36
aI1240
aI1698
aI1243
aI38
aI37
aI38
aI122
aI38
aI2685
aI38
aI683
aI1240
aI44
aI2686
aI2687
aI2688
aI2689
aI2690
aI999
aI128
aI129
aI130
aI131
aI132
aI456
aI1066
aI1098
aI297
aI929
aI48
aI719
aI686
aI687
aI69
aI2691
aI2692
aI1277
aa(lp310
I664
aI2
aI2693
aI666
aI2478
aI2694
aI1987
aI664
aI668
aI669
aI14
aI15
aI700
aI980
aI312
aI521
aI1166
aI672
aI673
aI674
aI675
aI676
aI371
aI677
aI678
aI679
aI1743
aI2478
aI2695
aI2696
aI1993
aI1162
aI1432
aI1433
aI1885
aI290
aI845
aI1994
aI207
aI208
aI1878
aI730
aI1942
aa(lp311
I1531
aI2697
aI2698
aI666
aI2699
aI2700
aI734
aI735
aI736
aI737
aI1531
aI1539
aI1540
aI384
aI257
aI2701
aI2702
aI107
aI276
aI2703
aI2704
aI2705
aI1872
aI2706
aI2707
aI2708
aI1496
aI677
aI678
aI2709
aI2710
aI738
aI112
aI209
aI210
aI2295
aI1089
aI2711
aI1991
aI2712
aI2713
aI2714
aI2715
aI753
aI754
aI755
aI756
aI55
aI26
aI757
aI758
aI759
aI760
aI761
aI762
aI763
aI764
aI736
aI765
aI766
aI767
aa(lp312
I36
aI180
aI38
aI73
aI38
aI107
aI38
aI2716
aI44
aI183
aI93
aI184
aI167
aI185
aI85
aI86
aI147
aI186
aI107
aI108
aI218
aI190
aI191
aI127
aI192
aI107
aI2717
aI471
aa(lp313
I36
aI37
aI38
aI122
aI38
aI123
aI38
aI1280
aI38
aI123
aI38
aI3
aI38
aI683
aI38
aI2718
aI44
aI45
aI128
aI129
aI130
aI131
aI132
aI133
aI134
aI135
aI2119
aI686
aI1289
aI567
aI134
aI135
aI901
aI88
aI685
aI686
aI687
aI69
aI688
aI433
aI462
aI2719
aI2720
aI2721
aI2722
aI2412
aa(lp314
I1847
aI1345
aI1135
aI824
aI2350
aI2723
aI734
aI735
aI736
aI737
aI1851
aI370
aI281
aI282
aI283
aI1363
aI1364
aI1365
aI491
aI1366
aI2724
aI1752
aI1742
aI1135
aI314
aI2725
aI2726
aI824
aI1643
aI2727
aI2728
aI2353
aI522
aI1891
aI1932
aI803
aI2729
aI2730
aI2731
aI1540
aI753
aI754
aI755
aI756
aI55
aI26
aI757
aI758
aI759
aI760
aI761
aI762
aI763
aI764
aI736
aI765
aI766
aI767
aa(lp315
I36
aI37
aI38
aI122
aI38
aI3
aI38
aI2732
aI38
aI249
aI38
aI2733
aI38
aI270
aI38
aI2734
aI38
aI123
aI38
aI107
aI38
aI2647
aI44
aI45
aI128
aI129
aI130
aI131
aI132
aI456
aI88
aI2357
aI724
aI2732
aI2735
aI2736
aI173
aI328
aI329
aI2069
aI930
aI173
aI328
aI505
aI2737
aI2353
aI518
aI917
aI918
aI270
aI83
aI84
aI1264
aI974
aI524
aI483
aI2674
aI2738
aI134
aI135
aI567
aI186
aI107
aI108
aI87
aI2242
aI1183
aI2218
aI2656
aI881
aI598
aI1001
aI152
aa(lp316
I36
aI2739
aI44
aI1448
aI521
aI522
aI207
aI1187
aI795
aI525
aI131
aI526
aI152
aa(lp317
I36
aI2740
aI475
aI38
aI182
aI44
aI2741
aI1576
aI2742
aI2743
aI2744
aI2745
aI2746
aI479
aI2661
aI190
aI191
aI127
aI192
aI107
aI144
aI120
aI121
aa(lp318
I1847
aI2
aI107
aI2510
aI666
aI1739
aI2043
aI1344
aI1951
aI2747
aI1851
aI370
aI281
aI855
aI14
aI15
aI628
aI275
aI107
aI276
aI309
aI310
aI856
aI466
aI145
aI280
aI313
aI314
aI857
aI677
aI678
aI1760
aI347
aI1761
aI1092
aI1762
aI1763
aI1764
aI209
aI1765
aI1766
aI1767
aI383
aI384
aI1768
aI1769
aI1770
aI1771
aI1772
aI1392
aI382
aI16
aI1356
aI1357
aI1358
aI1359
aI1360
aI1361
aI1090
aI283
aI284
aI1955
aI1858
aI113
aI516
aI1450
aI675
aI796
aI1435
aI1090
aI2748
aI165
aI166
aI419
aI2749
aI2750
aa(lp319
I36
aI2000
aI38
aI154
aI38
aI2751
aI38
aI2299
aI38
aI3
aI38
aI777
aI44
aI2002
aI1363
aI1032
aI1033
aI1034
aI1035
aI161
aI154
aI162
aI2003
aI520
aI1040
aI1041
aI1042
aI2069
aI2752
aI85
aI806
aI447
aI83
aI993
aI88
aI832
aI520
aI521
aI522
aI207
aI690
aI691
aI524
aI525
aI131
aI526
aI152
aa(lp320
I1341
aI257
aI258
aI107
aI241
aI475
aI244
aI2753
aI769
aI769
aI1341
aI7
aI1346
aI384
aI257
aI385
aI386
aI265
aI266
aI387
aI388
aI389
aI270
aI271
aI272
aI273
aI274
aI275
aI107
aI276
aI277
aI278
aI279
aI280
aI127
aI477
aI478
aI2754
aI402
aI301
aI302
aI303
aI304
aI305
aI306
aI326
aI1991
aI2755
aI1863
aI2756
aa(lp321
I254
aI618
aI2
aI527
aI75
aI2757
aI369
aI370
aI281
aI337
aI623
aI624
aI625
aI626
aI627
aI14
aI15
aI1653
aI1654
aI1655
aI855
aI347
aI348
aI706
aI701
aI2758
aI237
aI2759
aI2760
aI712
aI713
aI714
aI715
aa(lp322
I1847
aI153
aI2761
aI107
aI246
aI666
aI2762
aI1740
aI1851
aI370
aI281
aI282
aI2748
aI153
aI299
aI1971
aI347
aI1061
aI2763
aI1822
aI280
aI1771
aI1772
aI2764
aI1555
aI275
aI107
aI276
aI309
aI310
aI311
aI312
aI280
aI313
aI314
aI857
aI677
aI678
aI1760
aI347
aI1761
aI1092
aI1762
aI1763
aI1764
aI2765
aI2766
aI1767
aI383
aI384
aI1768
aI1769
aI1770
aI1771
aI1772
aI1773
aa(lp323
I0
aI1
aI2
aI3
aI620
aI2318
aI1428
aI972
aI973
aI0
aI7
aI8
aI9
aI10
aI11
aI12
aI13
aI14
aI15
aI16
aI17
aI2343
aI632
aI620
aI633
aI2767
aI2322
aI2323
aI2324
aI2768
aI1428
aI12
aI2325
aI888
aI972
aI978
aI979
aI980
aI973
aI981
aa(lp324
I36
aI37
aI38
aI122
aI38
aI1376
aI38
aI127
aI38
aI595
aI38
aI43
aI44
aI45
aI128
aI129
aI130
aI131
aI132
aI821
aI867
aI455
aI149
aI150
aI127
aI459
aI658
aI513
aI514
aI515
aI516
aI600
aI601
aI602
aI605
aI58
aI68
aI69
aI70
aI71
aa(lp325
I36
aI37
aI38
aI1007
aI38
aI595
aI38
aI683
aI44
aI45
aI1731
aI1014
aI1015
aI1016
aI1017
aI1294
aI513
aI514
aI515
aI516
aI600
aI601
aI602
aI1100
aI686
aI687
aI69
aI70
aI71
aa(lp326
I36
aI180
aI38
aI73
aI38
aI2769
aI38
aI123
aI38
aI127
aI44
aI183
aI93
aI184
aI167
aI185
aI85
aI86
aI218
aI142
aI143
aI144
aI219
aI200
aI134
aI135
aI434
aI150
aI127
aI151
aI152
aa(lp327
I36
aI595
aI38
aI2770
aI44
aI2771
aI514
aI515
aI516
aI600
aI601
aI602
aI941
aI520
aI521
aI522
aI207
aI690
aI691
aI524
aI525
aI131
aI2772
aI1230
aI152
aa(lp328
I36
aI37
aI38
aI122
aI38
aI123
aI38
aI2773
aI44
aI45
aI128
aI129
aI130
aI131
aI132
aI133
aI134
aI135
aI567
aI201
aI2774
aI2775
aI2776
aI2777
aI457
aI425
aa(lp329
I36
aI1324
aI38
aI2778
aI44
aI2771
aI514
aI1326
aI176
aI177
aI615
aI602
aI223
aI2116
aI2779
aI2780
aI70
aI71
aa(lp330
I36
aI72
aI38
aI73
aI38
aI3
aI38
aI2781
aI38
aI2782
aI38
aI405
aI44
aI80
aI81
aI82
aI83
aI84
aI85
aI86
aI87
aI88
aI909
aI652
aI2289
aI2124
aI2783
aI984
aI985
aI986
aI55
aI56
aI987
aI422
aI423
aI166
aI424
aI425
aa(lp331
I36
aI1698
aI38
aI37
aI38
aI2784
aI38
aI2785
aI38
aI37
aI38
aI122
aI38
aI2786
aI38
aI43
aI44
aI1699
aI1700
aI1489
aI999
aI2787
aI85
aI806
aI675
aI2522
aI2263
aI721
aI516
aI1651
aI432
aI433
aI186
aI2112
aI370
aI459
aI460
aI999
aI128
aI129
aI130
aI131
aI132
aI1814
aI1019
aI611
aI612
aI613
aI1552
aI600
aI601
aI602
aI605
aI58
aI68
aI69
aI70
aI71
aa(lp332
I36
aI37
aI38
aI122
aI38
aI123
aI38
aI1067
aI38
aI2788
aI38
aI43
aI44
aI45
aI128
aI129
aI130
aI131
aI132
aI133
aI134
aI135
aI901
aI1066
aI1067
aI2789
aI2790
aI440
aI452
aI453
aI2791
aI2792
aI2793
aI508
aI58
aI68
aI69
aI70
aI71
aa(lp333
I36
aI37
aI38
aI122
aI38
aI123
aI38
aI127
aI38
aI2794
aI38
aI43
aI44
aI45
aI128
aI129
aI130
aI131
aI132
aI133
aI134
aI135
aI434
aI150
aI127
aI459
aI508
aI173
aI557
aI1040
aI1592
aI1593
aI1594
aI58
aI68
aI69
aI70
aI71
aa(lp334
I36
aI37
aI38
aI39
aI38
aI40
aI38
aI41
aI38
aI3
aI38
aI2795
aI44
aI45
aI46
aI47
aI48
aI49
aI50
aI51
aI52
aI53
aI54
aI55
aI56
aI57
aI58
aI41
aI59
aI644
aI88
aI1199
aI173
aI557
aI1492
aI1321
aI1672
aI1745
aI1746
aI213
aI603
aI471
aa(lp335
I36
aI125
aI38
aI153
aI38
aI37
aI38
aI717
aI38
aI2785
aI38
aI2796
aI44
aI406
aI143
aI144
aI145
aI146
aI1294
aI164
aI153
aI159
aI1399
aI999
aI1802
aI724
aI717
aI725
aI2738
aI186
aI2112
aI370
aI459
aI2797
aI2798
aI1928
aI2799
aI2800
aI119
aI120
aI121
aa(lp336
I36
aI37
aI38
aI39
aI38
aI75
aI38
aI907
aI38
aI2801
aI38
aI270
aI38
aI716
aI38
aI123
aI38
aI717
aI38
aI1377
aI44
aI45
aI46
aI47
aI48
aI1457
aI96
aI97
aI943
aI50
aI907
aI916
aI917
aI918
aI1552
aI2802
aI2803
aI2804
aI2805
aI518
aI917
aI918
aI270
aI83
aI2806
aI686
aI720
aI721
aI55
aI56
aI722
aI134
aI135
aI723
aI724
aI717
aI725
aI726
aI499
aI1042
aI1176
aI1177
aI1380
aI1381
aI119
aI295
aI1182
aI450
aa(lp337
I36
aI180
aI38
aI73
aI38
aI2807
aI38
aI123
aI38
aI127
aI44
aI183
aI93
aI184
aI167
aI185
aI85
aI86
aI218
aI2808
aI2807
aI146
aI147
aI134
aI135
aI434
aI150
aI127
aI151
aI152
aa(lp338
I36
aI180
aI38
aI73
aI38
aI437
aI38
aI3
aI38
aI487
aI38
aI2809
aI44
aI183
aI93
aI184
aI167
aI185
aI85
aI86
aI87
aI440
aI441
aI442
aI398
aI443
aI456
aI88
aI512
aI499
aI500
aI501
aI502
aI503
aI504
aI2810
aI2811
aI904
aI152
aa(lp339
I36
aI37
aI38
aI39
aI38
aI40
aI38
aI41
aI38
aI3
aI38
aI776
aI38
aI2812
aI44
aI45
aI46
aI47
aI48
aI49
aI50
aI51
aI52
aI53
aI54
aI55
aI56
aI57
aI58
aI41
aI59
aI644
aI88
aI780
aI61
aI62
aI781
aI280
aI782
aI159
aI67
aI58
aI68
aI2811
aI2813
aI1906
aI1907
aa(lp340
I36
aI107
aI38
aI182
aI38
aI2814
aI38
aI214
aI38
aI215
aI38
aI2815
aI44
aI217
aI107
aI108
aI218
aI190
aI191
aI127
aI192
aI107
aI144
aI219
aI220
aI2816
aI1948
aI1949
aI224
aI214
aI225
aI226
aI227
aI228
aI229
aI230
aI571
aI2817
aI2818
aI2819
aa(lp341
I36
aI37
aI38
aI2820
aI38
aI1398
aI38
aI270
aI38
aI40
aI38
aI41
aI38
aI3
aI38
aI776
aI38
aI777
aI44
aI45
aI46
aI47
aI2082
aI1571
aI97
aI98
aI1400
aI707
aI708
aI709
aI710
aI711
aI712
aI713
aI2821
aI1886
aI918
aI270
aI83
aI1175
aI50
aI51
aI52
aI53
aI54
aI55
aI56
aI57
aI58
aI41
aI59
aI644
aI88
aI780
aI61
aI62
aI781
aI280
aI782
aI159
aI783
aI520
aI521
aI522
aI207
aI690
aI691
aI524
aI525
aI131
aI526
aI152
aa(lp342
I36
aI37
aI38
aI39
aI38
aI40
aI38
aI41
aI38
aI3
aI38
aI2214
aI38
aI777
aI44
aI45
aI46
aI47
aI48
aI49
aI50
aI51
aI52
aI53
aI54
aI55
aI56
aI57
aI58
aI41
aI59
aI644
aI88
aI89
aI2822
aI2216
aI1060
aI516
aI600
aI601
aI602
aI941
aI520
aI521
aI522
aI207
aI690
aI691
aI524
aI525
aI131
aI526
aI152
aa(lp343
I2823
aI2
aI107
aI2693
aI666
aI107
aI667
aI2824
aI664
aI668
aI669
aI14
aI15
aI628
aI275
aI107
aI276
aI670
aI980
aI312
aI521
aI1166
aI672
aI673
aI674
aI675
aI676
aI371
aI677
aI678
aI679
aI275
aI107
aI276
aI680
aI681
aI667
aI682
aa(lp344
I36
aI2769
aI38
aI123
aI38
aI127
aI44
aI406
aI143
aI144
aI219
aI200
aI134
aI135
aI434
aI150
aI127
aI151
aI152
aa(lp345
I2825
aI2
aI834
aI664
aI2826
aI2049
aI1653
aI14
aI15
aI952
aI846
aI847
aI848
aI849
aI850
aI1825
aa(lp346
I36
aI37
aI38
aI39
aI38
aI3
aI38
aI2827
aI38
aI666
aI38
aI2828
aI44
aI45
aI46
aI47
aI48
aI1229
aI88
aI780
aI2829
aI54
aI82
aI83
aI2315
aI2116
aI1219
aI2830
aI546
aI515
aI55
aI547
aI2831
aI2067
aI1697
aa(lp347
I36
aI125
aI38
aI2
aI38
aI107
aI38
aI2832
aI38
aI195
aI38
aI75
aI38
aI696
aI44
aI406
aI143
aI144
aI145
aI146
aI407
aI408
aI103
aI461
aI186
aI107
aI108
aI147
aI896
aI1115
aI204
aI97
aI205
aI206
aI207
aI208
aI112
aI209
aI210
aI568
aI1399
aI96
aI97
aI98
aI1400
aI707
aI708
aI709
aI710
aI711
aI712
aI713
aI714
aI1466
aI1467
aa(lp348
I254
aI2
aI107
aI2833
aI2834
aI75
aI107
aI2835
aI369
aI370
aI281
aI855
aI14
aI15
aI628
aI275
aI107
aI276
aI307
aI401
aI1023
aI2836
aI1786
aI522
aI1891
aI1967
aI1968
aI1969
aI1364
aI1365
aI778
aI1115
aI204
aI348
aI1971
aI347
aI348
aI356
aI275
aI107
aI276
aI1899
aI1557
aI1558
aI2742
aI2837
aa(lp349
I36
aI72
aI38
aI73
aI38
aI3
aI38
aI74
aI38
aI75
aI38
aI2838
aI44
aI80
aI81
aI82
aI83
aI84
aI85
aI86
aI87
aI88
aI89
aI90
aI91
aI92
aI93
aI94
aI95
aI96
aI97
aI98
aI99
aI2073
aI1183
aI1996
aI1182
aI450
aa(lp350
I2839
aI246
aI1344
aI2840
aI694
aI3
aI2841
aI666
aI254
aI2842
aI2843
aI2844
aI2845
aI260
aI1351
aI743
aI1352
aI310
aI311
aI312
aI280
aI313
aI314
aI1355
aI1356
aI1357
aI1358
aI1359
aI1360
aI1361
aI1611
aI2846
aI2847
aI1098
aI297
aI345
aI2848
aI698
aI699
aI16
aI17
aI2849
aI1757
aI521
aI2850
aI2851
aI322
aI2852
aI371
aI677
aI678
aI2853
aI368
aI369
aI370
aI906
aa(lp351
I36
aI37
aI38
aI122
aI38
aI123
aI38
aI72
aI38
aI3
aI38
aI2854
aI44
aI45
aI128
aI129
aI130
aI131
aI132
aI133
aI134
aI135
aI1840
aI992
aI81
aI82
aI83
aI993
aI88
aI832
aI520
aI2855
aI2856
aI2857
aI1832
aI691
aI524
aI525
aI131
aI1125
aI1906
aI1907
aa(lp352
I36
aI72
aI38
aI73
aI38
aI3
aI38
aI2732
aI38
aI2858
aI44
aI80
aI81
aI82
aI83
aI84
aI85
aI86
aI87
aI88
aI2357
aI724
aI2732
aI2735
aI2859
aI879
aI880
aI2860
aI904
aI152
aa(lp353
I36
aI2861
aI38
aI2
aI38
aI107
aI38
aI2862
aI38
aI2863
aI38
aI2785
aI38
aI2864
aI38
aI2865
aI38
aI2866
aI44
aI406
aI143
aI2867
aI2868
aI2869
aI408
aI103
aI461
aI186
aI107
aI108
aI1225
aI429
aI2870
aI2871
aI2872
aI1325
aI2873
aI2874
aI2875
aI1062
aI1063
aI2876
aI2877
aI200
aI186
aI2112
aI370
aI459
aI133
aI896
aI2878
aI2879
aI2664
aI432
aI2315
aI2880
aI2100
aI1482
aI1842
aI497
aI605
aI58
aI2881
aI2882
aI2883
aI2522
aI2236
aI2882
aI2884
aI212
aa(lp354
I36
aI125
aI38
aI153
aI38
aI37
aI38
aI72
aI38
aI683
aI38
aI2885
aI38
aI75
aI38
aI696
aI44
aI406
aI143
aI144
aI145
aI146
aI1294
aI164
aI153
aI159
aI1399
aI999
aI1009
aI992
aI81
aI82
aI83
aI2806
aI686
aI687
aI69
aI688
aI2886
aI1400
aI2887
aI2888
aI2889
aI2890
aI2891
aI96
aI97
aI98
aI1400
aI707
aI708
aI709
aI710
aI711
aI712
aI713
aI714
aI1466
aI1467
aa(lp355
I36
aI72
aI38
aI73
aI38
aI3
aI38
aI595
aI38
aI1830
aI38
aI75
aI38
aI907
aI38
aI908
aI44
aI80
aI81
aI82
aI83
aI84
aI85
aI86
aI87
aI88
aI512
aI513
aI514
aI515
aI516
aI600
aI601
aI602
aI941
aI520
aI521
aI1831
aI1832
aI691
aI524
aI525
aI131
aI132
aI460
aI96
aI97
aI943
aI50
aI907
aI916
aI917
aI918
aI919
aI920
aI921
aI922
aI923
aI731
aI450
aa(lp356
I2256
aI1951
aI2892
aI107
aI2893
aI244
aI246
aI123
aI2261
aI1427
aI1428
aI12
aI1429
aI283
aI284
aI1955
aI1858
aI113
aI516
aI1450
aI675
aI796
aI1435
aI1653
aI2894
aI2892
aI2895
aI291
aI275
aI107
aI276
aI1956
aI1957
aI329
aI2402
aI2896
aI299
aI300
aI301
aI302
aI303
aI304
aI305
aI306
aI309
aI310
aI311
aI312
aI280
aI313
aI314
aI291
aI338
aI123
aa(lp357
I664
aI2
aI1470
aI1471
aI2897
aI664
aI668
aI669
aI14
aI15
aI16
aI359
aI30
aI1477
aI299
aI950
aI1478
aI1479
aI2898
aI2899
aI926
aI2900
aI1484
aa(lp358
I0
aI1
aI2
aI3
aI2901
aI2902
aI0
aI7
aI8
aI9
aI10
aI11
aI12
aI13
aI14
aI15
aI16
aI17
aI18
aI2903
aI910
aI2312
aI2904
aI2905
aI2906
aI2907
aI2044
aI2176
aI2177
aI2908
aI2909
aI2910
aa(lp359
I36
aI107
aI38
aI2911
aI38
aI2912
aI38
aI2913
aI38
aI75
aI38
aI620
aI38
aI2914
aI44
aI217
aI107
aI108
aI421
aI422
aI2403
aI469
aI324
aI524
aI2915
aI1317
aI2916
aI546
aI260
aI237
aI1631
aI1576
aI2917
aI544
aI2918
aI1264
aI1265
aI1391
aI1454
aI1455
aI1456
aI1457
aI96
aI97
aI2586
aI429
aI620
aI1808
aI1809
aI161
aI2919
aI2920
aI2921
aI2412
aa(lp360
I254
aI2
aI2169
aI666
aI2922
aI2923
aI369
aI370
aI281
aI855
aI14
aI15
aI700
aI980
aI2172
aI749
aI2173
aI1759
aI1496
aI677
aI678
aI2174
aI2924
aI2925
aI2926
aI1938
aI2065
aI273
aI390
aI1994
aI1631
aI2927
aI2928
aI1484
aa(lp361
I36
aI254
aI38
aI2
aI38
aI107
aI38
aI2929
aI44
aI406
aI369
aI370
aI459
aI460
aI408
aI103
aI461
aI186
aI107
aI108
aI2930
aI1156
aI312
aI1040
aI2931
aI2932
aI1518
aI2619
aI2933
aI2934
aI208
aI112
aI209
aI210
aI211
aI212
aa(lp362
I36
aI254
aI38
aI2
aI38
aI107
aI38
aI182
aI38
aI1015
aI44
aI406
aI369
aI370
aI459
aI460
aI408
aI103
aI461
aI186
aI107
aI108
aI218
aI190
aI191
aI127
aI192
aI107
aI144
aI219
aI1908
aI1014
aI1015
aI2935
aI2412
aa(lp363
I36
aI254
aI38
aI437
aI38
aI107
aI38
aI74
aI38
aI2936
aI38
aI154
aI38
aI41
aI44
aI406
aI369
aI370
aI459
aI456
aI440
aI441
aI442
aI398
aI443
aI133
aI186
aI107
aI108
aI1790
aI90
aI91
aI92
aI93
aI94
aI95
aI2937
aI2938
aI1067
aI2939
aI2664
aI432
aI1035
aI161
aI154
aI162
aI172
aI58
aI41
aI2940
aI121
aa(lp364
I36
aI37
aI38
aI39
aI38
aI40
aI38
aI41
aI38
aI3
aI38
aI982
aI38
aI2941
aI44
aI45
aI46
aI47
aI48
aI49
aI50
aI51
aI52
aI53
aI54
aI55
aI56
aI57
aI58
aI41
aI59
aI644
aI88
aI909
aI652
aI653
aI654
aI984
aI985
aI986
aI55
aI56
aI2361
aI1169
aI1170
aI675
aI491
aI2942
aI470
aI471
aa(lp365
I36
aI125
aI38
aI1279
aI38
aI37
aI38
aI581
aI38
aI2943
aI835
aI44
aI406
aI143
aI144
aI145
aI146
aI1283
aI652
aI1284
aI1285
aI1286
aI1287
aI1034
aI1099
aI999
aI1668
aI589
aI590
aI591
aI1223
aI2245
aI2246
aI2944
aI2945
aI1044
aI747
aI2946
aI2947
aI2948
aa(lp366
I36
aI579
aI38
aI154
aI38
aI581
aI38
aI3
aI38
aI2949
aI38
aI2950
aI44
aI1292
aI585
aI498
aI161
aI154
aI162
aI1293
aI589
aI590
aI591
aI1223
aI87
aI88
aI2547
aI1271
aI1388
aI2951
aI2387
aI793
aI2952
aI166
aI167
aI2953
aI1322
aI1323
aI1320
aI675
aI526
aI152
aa(lp367
I36
aI180
aI38
aI73
aI38
aI2954
aI38
aI3
aI38
aI777
aI38
aI75
aI38
aI76
aI44
aI183
aI93
aI184
aI167
aI185
aI85
aI86
aI87
aI440
aI452
aI453
aI1523
aI59
aI644
aI88
aI832
aI520
aI521
aI522
aI207
aI690
aI691
aI524
aI525
aI131
aI132
aI460
aI96
aI97
aI98
aI99
aI100
aI101
aI102
aI1005
aI450
aa(lp368
I36
aI37
aI38
aI426
aI38
aI123
aI38
aI124
aI38
aI107
aI38
aI2362
aI44
aI45
aI428
aI429
aI430
aI431
aI432
aI433
aI134
aI135
aI136
aI137
aI138
aI139
aI140
aI2189
aI186
aI107
aI108
aI218
aI129
aI2363
aI2364
aI2021
aI107
aI144
aI120
aI121
aa(lp369
I36
aI1698
aI38
aI2785
aI38
aI2
aI38
aI2955
aI38
aI2956
aI38
aI37
aI38
aI2957
aI38
aI2785
aI38
aI37
aI38
aI122
aI38
aI595
aI38
aI43
aI44
aI1699
aI1700
aI567
aI186
aI2112
aI370
aI459
aI460
aI408
aI103
aI2958
aI531
aI2955
aI455
aI133
aI201
aI2507
aI175
aI2959
aI2960
aI1127
aI999
aI2961
aI2962
aI1568
aI672
aI2251
aI433
aI186
aI2112
aI370
aI459
aI460
aI999
aI128
aI129
aI130
aI131
aI132
aI658
aI513
aI514
aI515
aI516
aI600
aI601
aI602
aI605
aI58
aI68
aI69
aI70
aI71
aa(lp370
I664
aI2963
aI2964
aI664
aI668
aI2445
aI1503
aI2965
aI2966
aI271
aI2448
aI290
aI2151
aI2152
aI2083
aI2449
aI2967
aI2968
aI2451
aI2452
aI2543
aa(lp371
I36
aI593
aI38
aI122
aI38
aI123
aI38
aI2364
aI38
aI595
aI38
aI43
aI44
aI2383
aI1998
aI129
aI130
aI131
aI132
aI133
aI134
aI135
aI901
aI1224
aI2364
aI188
aI658
aI513
aI514
aI515
aI516
aI600
aI601
aI602
aI605
aI58
aI68
aI69
aI70
aI71
aa(lp372
I36
aI37
aI38
aI39
aI38
aI716
aI38
aI123
aI38
aI717
aI38
aI3
aI38
aI2969
aI44
aI45
aI46
aI47
aI48
aI719
aI686
aI720
aI721
aI55
aI56
aI722
aI134
aI135
aI723
aI724
aI717
aI725
aI1793
aI88
aI512
aI499
aI1042
aI1176
aI1177
aI1380
aI2970
aI2942
aI470
aI471
aa(lp373
I36
aI37
aI38
aI39
aI38
aI40
aI38
aI41
aI38
aI2971
aI38
aI195
aI44
aI45
aI46
aI47
aI48
aI49
aI50
aI51
aI52
aI53
aI54
aI55
aI56
aI57
aI58
aI41
aI59
aI644
aI914
aI2222
aI202
aI203
aI204
aI97
aI205
aI206
aI207
aI208
aI112
aI209
aI210
aI211
aI212
aa.